
ctarget:     file format elf64-x86-64


Disassembly of section .init:

0000000000400c48 <_init>:
  400c48:	48 83 ec 08          	sub    $0x8,%rsp
  400c4c:	48 8b 05 a5 43 20 00 	mov    0x2043a5(%rip),%rax        # 604ff8 <__gmon_start__>
  400c53:	48 85 c0             	test   %rax,%rax
  400c56:	74 05                	je     400c5d <_init+0x15>
  400c58:	e8 43 02 00 00       	callq  400ea0 <__gmon_start__@plt>
  400c5d:	48 83 c4 08          	add    $0x8,%rsp
  400c61:	c3                   	retq   

Disassembly of section .plt:

0000000000400c70 <.plt>:
  400c70:	ff 35 92 43 20 00    	pushq  0x204392(%rip)        # 605008 <_GLOBAL_OFFSET_TABLE_+0x8>
  400c76:	ff 25 94 43 20 00    	jmpq   *0x204394(%rip)        # 605010 <_GLOBAL_OFFSET_TABLE_+0x10>
  400c7c:	0f 1f 40 00          	nopl   0x0(%rax)

0000000000400c80 <strcasecmp@plt>:
  400c80:	ff 25 92 43 20 00    	jmpq   *0x204392(%rip)        # 605018 <strcasecmp@GLIBC_2.2.5>
  400c86:	68 00 00 00 00       	pushq  $0x0
  400c8b:	e9 e0 ff ff ff       	jmpq   400c70 <.plt>

0000000000400c90 <__errno_location@plt>:
  400c90:	ff 25 8a 43 20 00    	jmpq   *0x20438a(%rip)        # 605020 <__errno_location@GLIBC_2.2.5>
  400c96:	68 01 00 00 00       	pushq  $0x1
  400c9b:	e9 d0 ff ff ff       	jmpq   400c70 <.plt>

0000000000400ca0 <srandom@plt>:
  400ca0:	ff 25 82 43 20 00    	jmpq   *0x204382(%rip)        # 605028 <srandom@GLIBC_2.2.5>
  400ca6:	68 02 00 00 00       	pushq  $0x2
  400cab:	e9 c0 ff ff ff       	jmpq   400c70 <.plt>

0000000000400cb0 <strncmp@plt>:
  400cb0:	ff 25 7a 43 20 00    	jmpq   *0x20437a(%rip)        # 605030 <strncmp@GLIBC_2.2.5>
  400cb6:	68 03 00 00 00       	pushq  $0x3
  400cbb:	e9 b0 ff ff ff       	jmpq   400c70 <.plt>

0000000000400cc0 <strcpy@plt>:
  400cc0:	ff 25 72 43 20 00    	jmpq   *0x204372(%rip)        # 605038 <strcpy@GLIBC_2.2.5>
  400cc6:	68 04 00 00 00       	pushq  $0x4
  400ccb:	e9 a0 ff ff ff       	jmpq   400c70 <.plt>

0000000000400cd0 <puts@plt>:
  400cd0:	ff 25 6a 43 20 00    	jmpq   *0x20436a(%rip)        # 605040 <puts@GLIBC_2.2.5>
  400cd6:	68 05 00 00 00       	pushq  $0x5
  400cdb:	e9 90 ff ff ff       	jmpq   400c70 <.plt>

0000000000400ce0 <write@plt>:
  400ce0:	ff 25 62 43 20 00    	jmpq   *0x204362(%rip)        # 605048 <write@GLIBC_2.2.5>
  400ce6:	68 06 00 00 00       	pushq  $0x6
  400ceb:	e9 80 ff ff ff       	jmpq   400c70 <.plt>

0000000000400cf0 <__stack_chk_fail@plt>:
  400cf0:	ff 25 5a 43 20 00    	jmpq   *0x20435a(%rip)        # 605050 <__stack_chk_fail@GLIBC_2.4>
  400cf6:	68 07 00 00 00       	pushq  $0x7
  400cfb:	e9 70 ff ff ff       	jmpq   400c70 <.plt>

0000000000400d00 <mmap@plt>:
  400d00:	ff 25 52 43 20 00    	jmpq   *0x204352(%rip)        # 605058 <mmap@GLIBC_2.2.5>
  400d06:	68 08 00 00 00       	pushq  $0x8
  400d0b:	e9 60 ff ff ff       	jmpq   400c70 <.plt>

0000000000400d10 <memset@plt>:
  400d10:	ff 25 4a 43 20 00    	jmpq   *0x20434a(%rip)        # 605060 <memset@GLIBC_2.2.5>
  400d16:	68 09 00 00 00       	pushq  $0x9
  400d1b:	e9 50 ff ff ff       	jmpq   400c70 <.plt>

0000000000400d20 <alarm@plt>:
  400d20:	ff 25 42 43 20 00    	jmpq   *0x204342(%rip)        # 605068 <alarm@GLIBC_2.2.5>
  400d26:	68 0a 00 00 00       	pushq  $0xa
  400d2b:	e9 40 ff ff ff       	jmpq   400c70 <.plt>

0000000000400d30 <close@plt>:
  400d30:	ff 25 3a 43 20 00    	jmpq   *0x20433a(%rip)        # 605070 <close@GLIBC_2.2.5>
  400d36:	68 0b 00 00 00       	pushq  $0xb
  400d3b:	e9 30 ff ff ff       	jmpq   400c70 <.plt>

0000000000400d40 <read@plt>:
  400d40:	ff 25 32 43 20 00    	jmpq   *0x204332(%rip)        # 605078 <read@GLIBC_2.2.5>
  400d46:	68 0c 00 00 00       	pushq  $0xc
  400d4b:	e9 20 ff ff ff       	jmpq   400c70 <.plt>

0000000000400d50 <__libc_start_main@plt>:
  400d50:	ff 25 2a 43 20 00    	jmpq   *0x20432a(%rip)        # 605080 <__libc_start_main@GLIBC_2.2.5>
  400d56:	68 0d 00 00 00       	pushq  $0xd
  400d5b:	e9 10 ff ff ff       	jmpq   400c70 <.plt>

0000000000400d60 <signal@plt>:
  400d60:	ff 25 22 43 20 00    	jmpq   *0x204322(%rip)        # 605088 <signal@GLIBC_2.2.5>
  400d66:	68 0e 00 00 00       	pushq  $0xe
  400d6b:	e9 00 ff ff ff       	jmpq   400c70 <.plt>

0000000000400d70 <gethostbyname@plt>:
  400d70:	ff 25 1a 43 20 00    	jmpq   *0x20431a(%rip)        # 605090 <gethostbyname@GLIBC_2.2.5>
  400d76:	68 0f 00 00 00       	pushq  $0xf
  400d7b:	e9 f0 fe ff ff       	jmpq   400c70 <.plt>

0000000000400d80 <__memmove_chk@plt>:
  400d80:	ff 25 12 43 20 00    	jmpq   *0x204312(%rip)        # 605098 <__memmove_chk@GLIBC_2.3.4>
  400d86:	68 10 00 00 00       	pushq  $0x10
  400d8b:	e9 e0 fe ff ff       	jmpq   400c70 <.plt>

0000000000400d90 <strtol@plt>:
  400d90:	ff 25 0a 43 20 00    	jmpq   *0x20430a(%rip)        # 6050a0 <strtol@GLIBC_2.2.5>
  400d96:	68 11 00 00 00       	pushq  $0x11
  400d9b:	e9 d0 fe ff ff       	jmpq   400c70 <.plt>

0000000000400da0 <memcpy@plt>:
  400da0:	ff 25 02 43 20 00    	jmpq   *0x204302(%rip)        # 6050a8 <memcpy@GLIBC_2.14>
  400da6:	68 12 00 00 00       	pushq  $0x12
  400dab:	e9 c0 fe ff ff       	jmpq   400c70 <.plt>

0000000000400db0 <time@plt>:
  400db0:	ff 25 fa 42 20 00    	jmpq   *0x2042fa(%rip)        # 6050b0 <time@GLIBC_2.2.5>
  400db6:	68 13 00 00 00       	pushq  $0x13
  400dbb:	e9 b0 fe ff ff       	jmpq   400c70 <.plt>

0000000000400dc0 <random@plt>:
  400dc0:	ff 25 f2 42 20 00    	jmpq   *0x2042f2(%rip)        # 6050b8 <random@GLIBC_2.2.5>
  400dc6:	68 14 00 00 00       	pushq  $0x14
  400dcb:	e9 a0 fe ff ff       	jmpq   400c70 <.plt>

0000000000400dd0 <_IO_getc@plt>:
  400dd0:	ff 25 ea 42 20 00    	jmpq   *0x2042ea(%rip)        # 6050c0 <_IO_getc@GLIBC_2.2.5>
  400dd6:	68 15 00 00 00       	pushq  $0x15
  400ddb:	e9 90 fe ff ff       	jmpq   400c70 <.plt>

0000000000400de0 <__isoc99_sscanf@plt>:
  400de0:	ff 25 e2 42 20 00    	jmpq   *0x2042e2(%rip)        # 6050c8 <__isoc99_sscanf@GLIBC_2.7>
  400de6:	68 16 00 00 00       	pushq  $0x16
  400deb:	e9 80 fe ff ff       	jmpq   400c70 <.plt>

0000000000400df0 <munmap@plt>:
  400df0:	ff 25 da 42 20 00    	jmpq   *0x2042da(%rip)        # 6050d0 <munmap@GLIBC_2.2.5>
  400df6:	68 17 00 00 00       	pushq  $0x17
  400dfb:	e9 70 fe ff ff       	jmpq   400c70 <.plt>

0000000000400e00 <__printf_chk@plt>:
  400e00:	ff 25 d2 42 20 00    	jmpq   *0x2042d2(%rip)        # 6050d8 <__printf_chk@GLIBC_2.3.4>
  400e06:	68 18 00 00 00       	pushq  $0x18
  400e0b:	e9 60 fe ff ff       	jmpq   400c70 <.plt>

0000000000400e10 <fopen@plt>:
  400e10:	ff 25 ca 42 20 00    	jmpq   *0x2042ca(%rip)        # 6050e0 <fopen@GLIBC_2.2.5>
  400e16:	68 19 00 00 00       	pushq  $0x19
  400e1b:	e9 50 fe ff ff       	jmpq   400c70 <.plt>

0000000000400e20 <getopt@plt>:
  400e20:	ff 25 c2 42 20 00    	jmpq   *0x2042c2(%rip)        # 6050e8 <getopt@GLIBC_2.2.5>
  400e26:	68 1a 00 00 00       	pushq  $0x1a
  400e2b:	e9 40 fe ff ff       	jmpq   400c70 <.plt>

0000000000400e30 <strtoul@plt>:
  400e30:	ff 25 ba 42 20 00    	jmpq   *0x2042ba(%rip)        # 6050f0 <strtoul@GLIBC_2.2.5>
  400e36:	68 1b 00 00 00       	pushq  $0x1b
  400e3b:	e9 30 fe ff ff       	jmpq   400c70 <.plt>

0000000000400e40 <gethostname@plt>:
  400e40:	ff 25 b2 42 20 00    	jmpq   *0x2042b2(%rip)        # 6050f8 <gethostname@GLIBC_2.2.5>
  400e46:	68 1c 00 00 00       	pushq  $0x1c
  400e4b:	e9 20 fe ff ff       	jmpq   400c70 <.plt>

0000000000400e50 <exit@plt>:
  400e50:	ff 25 aa 42 20 00    	jmpq   *0x2042aa(%rip)        # 605100 <exit@GLIBC_2.2.5>
  400e56:	68 1d 00 00 00       	pushq  $0x1d
  400e5b:	e9 10 fe ff ff       	jmpq   400c70 <.plt>

0000000000400e60 <connect@plt>:
  400e60:	ff 25 a2 42 20 00    	jmpq   *0x2042a2(%rip)        # 605108 <connect@GLIBC_2.2.5>
  400e66:	68 1e 00 00 00       	pushq  $0x1e
  400e6b:	e9 00 fe ff ff       	jmpq   400c70 <.plt>

0000000000400e70 <__fprintf_chk@plt>:
  400e70:	ff 25 9a 42 20 00    	jmpq   *0x20429a(%rip)        # 605110 <__fprintf_chk@GLIBC_2.3.4>
  400e76:	68 1f 00 00 00       	pushq  $0x1f
  400e7b:	e9 f0 fd ff ff       	jmpq   400c70 <.plt>

0000000000400e80 <__sprintf_chk@plt>:
  400e80:	ff 25 92 42 20 00    	jmpq   *0x204292(%rip)        # 605118 <__sprintf_chk@GLIBC_2.3.4>
  400e86:	68 20 00 00 00       	pushq  $0x20
  400e8b:	e9 e0 fd ff ff       	jmpq   400c70 <.plt>

0000000000400e90 <socket@plt>:
  400e90:	ff 25 8a 42 20 00    	jmpq   *0x20428a(%rip)        # 605120 <socket@GLIBC_2.2.5>
  400e96:	68 21 00 00 00       	pushq  $0x21
  400e9b:	e9 d0 fd ff ff       	jmpq   400c70 <.plt>

Disassembly of section .plt.got:

0000000000400ea0 <__gmon_start__@plt>:
  400ea0:	ff 25 52 41 20 00    	jmpq   *0x204152(%rip)        # 604ff8 <__gmon_start__>
  400ea6:	66 90                	xchg   %ax,%ax

Disassembly of section .text:

0000000000400eb0 <_start>:
  400eb0:	31 ed                	xor    %ebp,%ebp
  400eb2:	49 89 d1             	mov    %rdx,%r9
  400eb5:	5e                   	pop    %rsi
  400eb6:	48 89 e2             	mov    %rsp,%rdx
  400eb9:	48 83 e4 f0          	and    $0xfffffffffffffff0,%rsp
  400ebd:	50                   	push   %rax
  400ebe:	54                   	push   %rsp
  400ebf:	49 c7 c0 a0 2e 40 00 	mov    $0x402ea0,%r8
  400ec6:	48 c7 c1 30 2e 40 00 	mov    $0x402e30,%rcx
  400ecd:	48 c7 c7 b5 11 40 00 	mov    $0x4011b5,%rdi
  400ed4:	e8 77 fe ff ff       	callq  400d50 <__libc_start_main@plt>
  400ed9:	f4                   	hlt    
  400eda:	66 0f 1f 44 00 00    	nopw   0x0(%rax,%rax,1)

0000000000400ee0 <deregister_tm_clones>:
  400ee0:	b8 b7 54 60 00       	mov    $0x6054b7,%eax
  400ee5:	55                   	push   %rbp
  400ee6:	48 2d b0 54 60 00    	sub    $0x6054b0,%rax
  400eec:	48 83 f8 0e          	cmp    $0xe,%rax
  400ef0:	48 89 e5             	mov    %rsp,%rbp
  400ef3:	76 1b                	jbe    400f10 <deregister_tm_clones+0x30>
  400ef5:	b8 00 00 00 00       	mov    $0x0,%eax
  400efa:	48 85 c0             	test   %rax,%rax
  400efd:	74 11                	je     400f10 <deregister_tm_clones+0x30>
  400eff:	5d                   	pop    %rbp
  400f00:	bf b0 54 60 00       	mov    $0x6054b0,%edi
  400f05:	ff e0                	jmpq   *%rax
  400f07:	66 0f 1f 84 00 00 00 	nopw   0x0(%rax,%rax,1)
  400f0e:	00 00 
  400f10:	5d                   	pop    %rbp
  400f11:	c3                   	retq   
  400f12:	0f 1f 40 00          	nopl   0x0(%rax)
  400f16:	66 2e 0f 1f 84 00 00 	nopw   %cs:0x0(%rax,%rax,1)
  400f1d:	00 00 00 

0000000000400f20 <register_tm_clones>:
  400f20:	be b0 54 60 00       	mov    $0x6054b0,%esi
  400f25:	55                   	push   %rbp
  400f26:	48 81 ee b0 54 60 00 	sub    $0x6054b0,%rsi
  400f2d:	48 c1 fe 03          	sar    $0x3,%rsi
  400f31:	48 89 e5             	mov    %rsp,%rbp
  400f34:	48 89 f0             	mov    %rsi,%rax
  400f37:	48 c1 e8 3f          	shr    $0x3f,%rax
  400f3b:	48 01 c6             	add    %rax,%rsi
  400f3e:	48 d1 fe             	sar    %rsi
  400f41:	74 15                	je     400f58 <register_tm_clones+0x38>
  400f43:	b8 00 00 00 00       	mov    $0x0,%eax
  400f48:	48 85 c0             	test   %rax,%rax
  400f4b:	74 0b                	je     400f58 <register_tm_clones+0x38>
  400f4d:	5d                   	pop    %rbp
  400f4e:	bf b0 54 60 00       	mov    $0x6054b0,%edi
  400f53:	ff e0                	jmpq   *%rax
  400f55:	0f 1f 00             	nopl   (%rax)
  400f58:	5d                   	pop    %rbp
  400f59:	c3                   	retq   
  400f5a:	66 0f 1f 44 00 00    	nopw   0x0(%rax,%rax,1)

0000000000400f60 <__do_global_dtors_aux>:
  400f60:	80 3d 81 45 20 00 00 	cmpb   $0x0,0x204581(%rip)        # 6054e8 <completed.7594>
  400f67:	75 11                	jne    400f7a <__do_global_dtors_aux+0x1a>
  400f69:	55                   	push   %rbp
  400f6a:	48 89 e5             	mov    %rsp,%rbp
  400f6d:	e8 6e ff ff ff       	callq  400ee0 <deregister_tm_clones>
  400f72:	5d                   	pop    %rbp
  400f73:	c6 05 6e 45 20 00 01 	movb   $0x1,0x20456e(%rip)        # 6054e8 <completed.7594>
  400f7a:	f3 c3                	repz retq 
  400f7c:	0f 1f 40 00          	nopl   0x0(%rax)

0000000000400f80 <frame_dummy>:
  400f80:	bf 20 4e 60 00       	mov    $0x604e20,%edi
  400f85:	48 83 3f 00          	cmpq   $0x0,(%rdi)
  400f89:	75 05                	jne    400f90 <frame_dummy+0x10>
  400f8b:	eb 93                	jmp    400f20 <register_tm_clones>
  400f8d:	0f 1f 00             	nopl   (%rax)
  400f90:	b8 00 00 00 00       	mov    $0x0,%eax
  400f95:	48 85 c0             	test   %rax,%rax
  400f98:	74 f1                	je     400f8b <frame_dummy+0xb>
  400f9a:	55                   	push   %rbp
  400f9b:	48 89 e5             	mov    %rsp,%rbp
  400f9e:	ff d0                	callq  *%rax
  400fa0:	5d                   	pop    %rbp
  400fa1:	e9 7a ff ff ff       	jmpq   400f20 <register_tm_clones>

0000000000400fa6 <usage>:
  400fa6:	48 83 ec 08          	sub    $0x8,%rsp
  400faa:	48 89 fa             	mov    %rdi,%rdx
  400fad:	83 3d 74 45 20 00 00 	cmpl   $0x0,0x204574(%rip)        # 605528 <is_checker>
  400fb4:	74 3e                	je     400ff4 <usage+0x4e>
  400fb6:	be b8 2e 40 00       	mov    $0x402eb8,%esi
  400fbb:	bf 01 00 00 00       	mov    $0x1,%edi
  400fc0:	b8 00 00 00 00       	mov    $0x0,%eax
  400fc5:	e8 36 fe ff ff       	callq  400e00 <__printf_chk@plt>
  400fca:	bf f0 2e 40 00       	mov    $0x402ef0,%edi
  400fcf:	e8 fc fc ff ff       	callq  400cd0 <puts@plt>
  400fd4:	bf 68 30 40 00       	mov    $0x403068,%edi
  400fd9:	e8 f2 fc ff ff       	callq  400cd0 <puts@plt>
  400fde:	bf 18 2f 40 00       	mov    $0x402f18,%edi
  400fe3:	e8 e8 fc ff ff       	callq  400cd0 <puts@plt>
  400fe8:	bf 82 30 40 00       	mov    $0x403082,%edi
  400fed:	e8 de fc ff ff       	callq  400cd0 <puts@plt>
  400ff2:	eb 32                	jmp    401026 <usage+0x80>
  400ff4:	be 9e 30 40 00       	mov    $0x40309e,%esi
  400ff9:	bf 01 00 00 00       	mov    $0x1,%edi
  400ffe:	b8 00 00 00 00       	mov    $0x0,%eax
  401003:	e8 f8 fd ff ff       	callq  400e00 <__printf_chk@plt>
  401008:	bf 40 2f 40 00       	mov    $0x402f40,%edi
  40100d:	e8 be fc ff ff       	callq  400cd0 <puts@plt>
  401012:	bf 68 2f 40 00       	mov    $0x402f68,%edi
  401017:	e8 b4 fc ff ff       	callq  400cd0 <puts@plt>
  40101c:	bf bc 30 40 00       	mov    $0x4030bc,%edi
  401021:	e8 aa fc ff ff       	callq  400cd0 <puts@plt>
  401026:	bf 00 00 00 00       	mov    $0x0,%edi
  40102b:	e8 20 fe ff ff       	callq  400e50 <exit@plt>

0000000000401030 <initialize_target>:
  401030:	55                   	push   %rbp
  401031:	53                   	push   %rbx
  401032:	48 81 ec 18 21 00 00 	sub    $0x2118,%rsp
  401039:	89 f5                	mov    %esi,%ebp
  40103b:	64 48 8b 04 25 28 00 	mov    %fs:0x28,%rax
  401042:	00 00 
  401044:	48 89 84 24 08 21 00 	mov    %rax,0x2108(%rsp)
  40104b:	00 
  40104c:	31 c0                	xor    %eax,%eax
  40104e:	89 3d c4 44 20 00    	mov    %edi,0x2044c4(%rip)        # 605518 <check_level>
  401054:	8b 3d 0e 41 20 00    	mov    0x20410e(%rip),%edi        # 605168 <target_id>
  40105a:	e8 a8 1d 00 00       	callq  402e07 <gencookie>
  40105f:	89 05 bf 44 20 00    	mov    %eax,0x2044bf(%rip)        # 605524 <cookie>
  401065:	89 c7                	mov    %eax,%edi
  401067:	e8 9b 1d 00 00       	callq  402e07 <gencookie>
  40106c:	89 05 ae 44 20 00    	mov    %eax,0x2044ae(%rip)        # 605520 <authkey>
  401072:	8b 05 f0 40 20 00    	mov    0x2040f0(%rip),%eax        # 605168 <target_id>
  401078:	8d 78 01             	lea    0x1(%rax),%edi
  40107b:	e8 20 fc ff ff       	callq  400ca0 <srandom@plt>
  401080:	e8 3b fd ff ff       	callq  400dc0 <random@plt>
  401085:	89 c7                	mov    %eax,%edi
  401087:	e8 03 03 00 00       	callq  40138f <scramble>
  40108c:	89 c3                	mov    %eax,%ebx
  40108e:	85 ed                	test   %ebp,%ebp
  401090:	74 18                	je     4010aa <initialize_target+0x7a>
  401092:	bf 00 00 00 00       	mov    $0x0,%edi
  401097:	e8 14 fd ff ff       	callq  400db0 <time@plt>
  40109c:	89 c7                	mov    %eax,%edi
  40109e:	e8 fd fb ff ff       	callq  400ca0 <srandom@plt>
  4010a3:	e8 18 fd ff ff       	callq  400dc0 <random@plt>
  4010a8:	eb 05                	jmp    4010af <initialize_target+0x7f>
  4010aa:	b8 00 00 00 00       	mov    $0x0,%eax
  4010af:	01 c3                	add    %eax,%ebx
  4010b1:	0f b7 db             	movzwl %bx,%ebx
  4010b4:	8d 04 dd 00 01 00 00 	lea    0x100(,%rbx,8),%eax
  4010bb:	89 c0                	mov    %eax,%eax
  4010bd:	48 89 05 dc 43 20 00 	mov    %rax,0x2043dc(%rip)        # 6054a0 <buf_offset>
  4010c4:	c6 05 7d 50 20 00 63 	movb   $0x63,0x20507d(%rip)        # 606148 <target_prefix>
  4010cb:	83 3d d6 43 20 00 00 	cmpl   $0x0,0x2043d6(%rip)        # 6054a8 <notify>
  4010d2:	0f 84 bb 00 00 00    	je     401193 <initialize_target+0x163>
  4010d8:	83 3d 49 44 20 00 00 	cmpl   $0x0,0x204449(%rip)        # 605528 <is_checker>
  4010df:	0f 85 ae 00 00 00    	jne    401193 <initialize_target+0x163>
  4010e5:	be 00 01 00 00       	mov    $0x100,%esi
  4010ea:	48 89 e7             	mov    %rsp,%rdi
  4010ed:	e8 4e fd ff ff       	callq  400e40 <gethostname@plt>
  4010f2:	85 c0                	test   %eax,%eax
  4010f4:	74 25                	je     40111b <initialize_target+0xeb>
  4010f6:	bf 98 2f 40 00       	mov    $0x402f98,%edi
  4010fb:	e8 d0 fb ff ff       	callq  400cd0 <puts@plt>
  401100:	bf 08 00 00 00       	mov    $0x8,%edi
  401105:	e8 46 fd ff ff       	callq  400e50 <exit@plt>
  40110a:	48 89 e6             	mov    %rsp,%rsi
  40110d:	e8 6e fb ff ff       	callq  400c80 <strcasecmp@plt>
  401112:	85 c0                	test   %eax,%eax
  401114:	74 21                	je     401137 <initialize_target+0x107>
  401116:	83 c3 01             	add    $0x1,%ebx
  401119:	eb 05                	jmp    401120 <initialize_target+0xf0>
  40111b:	bb 00 00 00 00       	mov    $0x0,%ebx
  401120:	48 63 c3             	movslq %ebx,%rax
  401123:	48 8b 3c c5 80 51 60 	mov    0x605180(,%rax,8),%rdi
  40112a:	00 
  40112b:	48 85 ff             	test   %rdi,%rdi
  40112e:	75 da                	jne    40110a <initialize_target+0xda>
  401130:	b8 00 00 00 00       	mov    $0x0,%eax
  401135:	eb 05                	jmp    40113c <initialize_target+0x10c>
  401137:	b8 01 00 00 00       	mov    $0x1,%eax
  40113c:	85 c0                	test   %eax,%eax
  40113e:	75 1c                	jne    40115c <initialize_target+0x12c>
  401140:	48 89 e2             	mov    %rsp,%rdx
  401143:	be d0 2f 40 00       	mov    $0x402fd0,%esi
  401148:	bf 01 00 00 00       	mov    $0x1,%edi
  40114d:	e8 ae fc ff ff       	callq  400e00 <__printf_chk@plt>
  401152:	bf 08 00 00 00       	mov    $0x8,%edi
  401157:	e8 f4 fc ff ff       	callq  400e50 <exit@plt>
  40115c:	48 8d bc 24 00 01 00 	lea    0x100(%rsp),%rdi
  401163:	00 
  401164:	e8 08 1a 00 00       	callq  402b71 <init_driver>
  401169:	85 c0                	test   %eax,%eax
  40116b:	79 26                	jns    401193 <initialize_target+0x163>
  40116d:	48 8d 94 24 00 01 00 	lea    0x100(%rsp),%rdx
  401174:	00 
  401175:	be 10 30 40 00       	mov    $0x403010,%esi
  40117a:	bf 01 00 00 00       	mov    $0x1,%edi
  40117f:	b8 00 00 00 00       	mov    $0x0,%eax
  401184:	e8 77 fc ff ff       	callq  400e00 <__printf_chk@plt>
  401189:	bf 08 00 00 00       	mov    $0x8,%edi
  40118e:	e8 bd fc ff ff       	callq  400e50 <exit@plt>
  401193:	48 8b 84 24 08 21 00 	mov    0x2108(%rsp),%rax
  40119a:	00 
  40119b:	64 48 33 04 25 28 00 	xor    %fs:0x28,%rax
  4011a2:	00 00 
  4011a4:	74 05                	je     4011ab <initialize_target+0x17b>
  4011a6:	e8 45 fb ff ff       	callq  400cf0 <__stack_chk_fail@plt>
  4011ab:	48 81 c4 18 21 00 00 	add    $0x2118,%rsp
  4011b2:	5b                   	pop    %rbx
  4011b3:	5d                   	pop    %rbp
  4011b4:	c3                   	retq   

00000000004011b5 <main>:
  4011b5:	41 56                	push   %r14
  4011b7:	41 55                	push   %r13
  4011b9:	41 54                	push   %r12
  4011bb:	55                   	push   %rbp
  4011bc:	53                   	push   %rbx
  4011bd:	41 89 fc             	mov    %edi,%r12d
  4011c0:	48 89 f3             	mov    %rsi,%rbx
  4011c3:	be ac 1e 40 00       	mov    $0x401eac,%esi
  4011c8:	bf 0b 00 00 00       	mov    $0xb,%edi
  4011cd:	e8 8e fb ff ff       	callq  400d60 <signal@plt>
  4011d2:	be 5e 1e 40 00       	mov    $0x401e5e,%esi
  4011d7:	bf 07 00 00 00       	mov    $0x7,%edi
  4011dc:	e8 7f fb ff ff       	callq  400d60 <signal@plt>
  4011e1:	be fa 1e 40 00       	mov    $0x401efa,%esi
  4011e6:	bf 04 00 00 00       	mov    $0x4,%edi
  4011eb:	e8 70 fb ff ff       	callq  400d60 <signal@plt>
  4011f0:	83 3d 31 43 20 00 00 	cmpl   $0x0,0x204331(%rip)        # 605528 <is_checker>
  4011f7:	74 20                	je     401219 <main+0x64>
  4011f9:	be 48 1f 40 00       	mov    $0x401f48,%esi
  4011fe:	bf 0e 00 00 00       	mov    $0xe,%edi
  401203:	e8 58 fb ff ff       	callq  400d60 <signal@plt>
  401208:	bf 05 00 00 00       	mov    $0x5,%edi
  40120d:	e8 0e fb ff ff       	callq  400d20 <alarm@plt>
  401212:	bd da 30 40 00       	mov    $0x4030da,%ebp
  401217:	eb 05                	jmp    40121e <main+0x69>
  401219:	bd d5 30 40 00       	mov    $0x4030d5,%ebp
  40121e:	48 8b 05 9b 42 20 00 	mov    0x20429b(%rip),%rax        # 6054c0 <stdin@@GLIBC_2.2.5>
  401225:	48 89 05 e4 42 20 00 	mov    %rax,0x2042e4(%rip)        # 605510 <infile>
  40122c:	41 bd 00 00 00 00    	mov    $0x0,%r13d
  401232:	41 be 00 00 00 00    	mov    $0x0,%r14d
  401238:	e9 c6 00 00 00       	jmpq   401303 <main+0x14e>
  40123d:	83 e8 61             	sub    $0x61,%eax
  401240:	3c 10                	cmp    $0x10,%al
  401242:	0f 87 9c 00 00 00    	ja     4012e4 <main+0x12f>
  401248:	0f b6 c0             	movzbl %al,%eax
  40124b:	ff 24 c5 20 31 40 00 	jmpq   *0x403120(,%rax,8)
  401252:	48 8b 3b             	mov    (%rbx),%rdi
  401255:	e8 4c fd ff ff       	callq  400fa6 <usage>
  40125a:	be 1d 35 40 00       	mov    $0x40351d,%esi
  40125f:	48 8b 3d 62 42 20 00 	mov    0x204262(%rip),%rdi        # 6054c8 <optarg@@GLIBC_2.2.5>
  401266:	e8 a5 fb ff ff       	callq  400e10 <fopen@plt>
  40126b:	48 89 05 9e 42 20 00 	mov    %rax,0x20429e(%rip)        # 605510 <infile>
  401272:	48 85 c0             	test   %rax,%rax
  401275:	0f 85 88 00 00 00    	jne    401303 <main+0x14e>
  40127b:	48 8b 0d 46 42 20 00 	mov    0x204246(%rip),%rcx        # 6054c8 <optarg@@GLIBC_2.2.5>
  401282:	ba e2 30 40 00       	mov    $0x4030e2,%edx
  401287:	be 01 00 00 00       	mov    $0x1,%esi
  40128c:	48 8b 3d 4d 42 20 00 	mov    0x20424d(%rip),%rdi        # 6054e0 <stderr@@GLIBC_2.2.5>
  401293:	e8 d8 fb ff ff       	callq  400e70 <__fprintf_chk@plt>
  401298:	b8 01 00 00 00       	mov    $0x1,%eax
  40129d:	e9 e4 00 00 00       	jmpq   401386 <main+0x1d1>
  4012a2:	ba 10 00 00 00       	mov    $0x10,%edx
  4012a7:	be 00 00 00 00       	mov    $0x0,%esi
  4012ac:	48 8b 3d 15 42 20 00 	mov    0x204215(%rip),%rdi        # 6054c8 <optarg@@GLIBC_2.2.5>
  4012b3:	e8 78 fb ff ff       	callq  400e30 <strtoul@plt>
  4012b8:	41 89 c6             	mov    %eax,%r14d
  4012bb:	eb 46                	jmp    401303 <main+0x14e>
  4012bd:	ba 0a 00 00 00       	mov    $0xa,%edx
  4012c2:	be 00 00 00 00       	mov    $0x0,%esi
  4012c7:	48 8b 3d fa 41 20 00 	mov    0x2041fa(%rip),%rdi        # 6054c8 <optarg@@GLIBC_2.2.5>
  4012ce:	e8 bd fa ff ff       	callq  400d90 <strtol@plt>
  4012d3:	41 89 c5             	mov    %eax,%r13d
  4012d6:	eb 2b                	jmp    401303 <main+0x14e>
  4012d8:	c7 05 c6 41 20 00 00 	movl   $0x0,0x2041c6(%rip)        # 6054a8 <notify>
  4012df:	00 00 00 
  4012e2:	eb 1f                	jmp    401303 <main+0x14e>
  4012e4:	0f be d2             	movsbl %dl,%edx
  4012e7:	be ff 30 40 00       	mov    $0x4030ff,%esi
  4012ec:	bf 01 00 00 00       	mov    $0x1,%edi
  4012f1:	b8 00 00 00 00       	mov    $0x0,%eax
  4012f6:	e8 05 fb ff ff       	callq  400e00 <__printf_chk@plt>
  4012fb:	48 8b 3b             	mov    (%rbx),%rdi
  4012fe:	e8 a3 fc ff ff       	callq  400fa6 <usage>
  401303:	48 89 ea             	mov    %rbp,%rdx
  401306:	48 89 de             	mov    %rbx,%rsi
  401309:	44 89 e7             	mov    %r12d,%edi
  40130c:	e8 0f fb ff ff       	callq  400e20 <getopt@plt>
  401311:	89 c2                	mov    %eax,%edx
  401313:	3c ff                	cmp    $0xff,%al
  401315:	0f 85 22 ff ff ff    	jne    40123d <main+0x88>
  40131b:	be 00 00 00 00       	mov    $0x0,%esi
  401320:	44 89 ef             	mov    %r13d,%edi
  401323:	e8 08 fd ff ff       	callq  401030 <initialize_target>
  401328:	83 3d f9 41 20 00 00 	cmpl   $0x0,0x2041f9(%rip)        # 605528 <is_checker>
  40132f:	74 2a                	je     40135b <main+0x1a6>
  401331:	44 3b 35 e8 41 20 00 	cmp    0x2041e8(%rip),%r14d        # 605520 <authkey>
  401338:	74 21                	je     40135b <main+0x1a6>
  40133a:	44 89 f2             	mov    %r14d,%edx
  40133d:	be 38 30 40 00       	mov    $0x403038,%esi
  401342:	bf 01 00 00 00       	mov    $0x1,%edi
  401347:	b8 00 00 00 00       	mov    $0x0,%eax
  40134c:	e8 af fa ff ff       	callq  400e00 <__printf_chk@plt>
  401351:	b8 00 00 00 00       	mov    $0x0,%eax
  401356:	e8 9f 07 00 00       	callq  401afa <check_fail>
  40135b:	8b 15 c3 41 20 00    	mov    0x2041c3(%rip),%edx        # 605524 <cookie>
  401361:	be 12 31 40 00       	mov    $0x403112,%esi
  401366:	bf 01 00 00 00       	mov    $0x1,%edi
  40136b:	b8 00 00 00 00       	mov    $0x0,%eax
  401370:	e8 8b fa ff ff       	callq  400e00 <__printf_chk@plt>
  401375:	48 8b 3d 24 41 20 00 	mov    0x204124(%rip),%rdi        # 6054a0 <buf_offset>
  40137c:	e8 c7 0c 00 00       	callq  402048 <stable_launch>
  401381:	b8 00 00 00 00       	mov    $0x0,%eax
  401386:	5b                   	pop    %rbx
  401387:	5d                   	pop    %rbp
  401388:	41 5c                	pop    %r12
  40138a:	41 5d                	pop    %r13
  40138c:	41 5e                	pop    %r14
  40138e:	c3                   	retq   

000000000040138f <scramble>:
  40138f:	48 83 ec 38          	sub    $0x38,%rsp
  401393:	64 48 8b 04 25 28 00 	mov    %fs:0x28,%rax
  40139a:	00 00 
  40139c:	48 89 44 24 28       	mov    %rax,0x28(%rsp)
  4013a1:	31 c0                	xor    %eax,%eax
  4013a3:	eb 10                	jmp    4013b5 <scramble+0x26>
  4013a5:	69 d0 03 55 00 00    	imul   $0x5503,%eax,%edx
  4013ab:	01 fa                	add    %edi,%edx
  4013ad:	89 c1                	mov    %eax,%ecx
  4013af:	89 14 8c             	mov    %edx,(%rsp,%rcx,4)
  4013b2:	83 c0 01             	add    $0x1,%eax
  4013b5:	83 f8 09             	cmp    $0x9,%eax
  4013b8:	76 eb                	jbe    4013a5 <scramble+0x16>
  4013ba:	8b 44 24 0c          	mov    0xc(%rsp),%eax
  4013be:	69 c0 f1 d1 00 00    	imul   $0xd1f1,%eax,%eax
  4013c4:	89 44 24 0c          	mov    %eax,0xc(%rsp)
  4013c8:	8b 44 24 04          	mov    0x4(%rsp),%eax
  4013cc:	69 c0 f9 d9 00 00    	imul   $0xd9f9,%eax,%eax
  4013d2:	89 44 24 04          	mov    %eax,0x4(%rsp)
  4013d6:	8b 44 24 20          	mov    0x20(%rsp),%eax
  4013da:	69 c0 3e 9a 00 00    	imul   $0x9a3e,%eax,%eax
  4013e0:	89 44 24 20          	mov    %eax,0x20(%rsp)
  4013e4:	8b 44 24 20          	mov    0x20(%rsp),%eax
  4013e8:	69 c0 0e e7 00 00    	imul   $0xe70e,%eax,%eax
  4013ee:	89 44 24 20          	mov    %eax,0x20(%rsp)
  4013f2:	8b 44 24 08          	mov    0x8(%rsp),%eax
  4013f6:	69 c0 6f 6b 00 00    	imul   $0x6b6f,%eax,%eax
  4013fc:	89 44 24 08          	mov    %eax,0x8(%rsp)
  401400:	8b 44 24 18          	mov    0x18(%rsp),%eax
  401404:	69 c0 5e a9 00 00    	imul   $0xa95e,%eax,%eax
  40140a:	89 44 24 18          	mov    %eax,0x18(%rsp)
  40140e:	8b 44 24 0c          	mov    0xc(%rsp),%eax
  401412:	69 c0 00 35 00 00    	imul   $0x3500,%eax,%eax
  401418:	89 44 24 0c          	mov    %eax,0xc(%rsp)
  40141c:	8b 44 24 14          	mov    0x14(%rsp),%eax
  401420:	69 c0 93 7a 00 00    	imul   $0x7a93,%eax,%eax
  401426:	89 44 24 14          	mov    %eax,0x14(%rsp)
  40142a:	8b 44 24 08          	mov    0x8(%rsp),%eax
  40142e:	69 c0 65 a9 00 00    	imul   $0xa965,%eax,%eax
  401434:	89 44 24 08          	mov    %eax,0x8(%rsp)
  401438:	8b 44 24 04          	mov    0x4(%rsp),%eax
  40143c:	69 c0 a9 96 00 00    	imul   $0x96a9,%eax,%eax
  401442:	89 44 24 04          	mov    %eax,0x4(%rsp)
  401446:	8b 44 24 08          	mov    0x8(%rsp),%eax
  40144a:	69 c0 50 41 00 00    	imul   $0x4150,%eax,%eax
  401450:	89 44 24 08          	mov    %eax,0x8(%rsp)
  401454:	8b 44 24 14          	mov    0x14(%rsp),%eax
  401458:	69 c0 e0 f4 00 00    	imul   $0xf4e0,%eax,%eax
  40145e:	89 44 24 14          	mov    %eax,0x14(%rsp)
  401462:	8b 44 24 0c          	mov    0xc(%rsp),%eax
  401466:	69 c0 35 75 00 00    	imul   $0x7535,%eax,%eax
  40146c:	89 44 24 0c          	mov    %eax,0xc(%rsp)
  401470:	8b 44 24 10          	mov    0x10(%rsp),%eax
  401474:	69 c0 b9 fe 00 00    	imul   $0xfeb9,%eax,%eax
  40147a:	89 44 24 10          	mov    %eax,0x10(%rsp)
  40147e:	8b 44 24 04          	mov    0x4(%rsp),%eax
  401482:	69 c0 a7 9a 00 00    	imul   $0x9aa7,%eax,%eax
  401488:	89 44 24 04          	mov    %eax,0x4(%rsp)
  40148c:	8b 44 24 08          	mov    0x8(%rsp),%eax
  401490:	69 c0 a1 c0 00 00    	imul   $0xc0a1,%eax,%eax
  401496:	89 44 24 08          	mov    %eax,0x8(%rsp)
  40149a:	8b 44 24 10          	mov    0x10(%rsp),%eax
  40149e:	69 c0 5e ce 00 00    	imul   $0xce5e,%eax,%eax
  4014a4:	89 44 24 10          	mov    %eax,0x10(%rsp)
  4014a8:	8b 44 24 0c          	mov    0xc(%rsp),%eax
  4014ac:	69 c0 50 cf 00 00    	imul   $0xcf50,%eax,%eax
  4014b2:	89 44 24 0c          	mov    %eax,0xc(%rsp)
  4014b6:	8b 04 24             	mov    (%rsp),%eax
  4014b9:	69 c0 04 9d 00 00    	imul   $0x9d04,%eax,%eax
  4014bf:	89 04 24             	mov    %eax,(%rsp)
  4014c2:	8b 44 24 04          	mov    0x4(%rsp),%eax
  4014c6:	69 c0 17 62 00 00    	imul   $0x6217,%eax,%eax
  4014cc:	89 44 24 04          	mov    %eax,0x4(%rsp)
  4014d0:	8b 44 24 14          	mov    0x14(%rsp),%eax
  4014d4:	69 c0 6c 0f 00 00    	imul   $0xf6c,%eax,%eax
  4014da:	89 44 24 14          	mov    %eax,0x14(%rsp)
  4014de:	8b 44 24 10          	mov    0x10(%rsp),%eax
  4014e2:	69 c0 e9 26 00 00    	imul   $0x26e9,%eax,%eax
  4014e8:	89 44 24 10          	mov    %eax,0x10(%rsp)
  4014ec:	8b 44 24 1c          	mov    0x1c(%rsp),%eax
  4014f0:	69 c0 4b d4 00 00    	imul   $0xd44b,%eax,%eax
  4014f6:	89 44 24 1c          	mov    %eax,0x1c(%rsp)
  4014fa:	8b 44 24 18          	mov    0x18(%rsp),%eax
  4014fe:	69 c0 df 48 00 00    	imul   $0x48df,%eax,%eax
  401504:	89 44 24 18          	mov    %eax,0x18(%rsp)
  401508:	8b 44 24 18          	mov    0x18(%rsp),%eax
  40150c:	69 c0 9d 3b 00 00    	imul   $0x3b9d,%eax,%eax
  401512:	89 44 24 18          	mov    %eax,0x18(%rsp)
  401516:	8b 44 24 04          	mov    0x4(%rsp),%eax
  40151a:	69 c0 a9 a6 00 00    	imul   $0xa6a9,%eax,%eax
  401520:	89 44 24 04          	mov    %eax,0x4(%rsp)
  401524:	8b 44 24 1c          	mov    0x1c(%rsp),%eax
  401528:	69 c0 86 4f 00 00    	imul   $0x4f86,%eax,%eax
  40152e:	89 44 24 1c          	mov    %eax,0x1c(%rsp)
  401532:	8b 44 24 14          	mov    0x14(%rsp),%eax
  401536:	69 c0 e2 9a 00 00    	imul   $0x9ae2,%eax,%eax
  40153c:	89 44 24 14          	mov    %eax,0x14(%rsp)
  401540:	8b 44 24 04          	mov    0x4(%rsp),%eax
  401544:	69 c0 e0 28 00 00    	imul   $0x28e0,%eax,%eax
  40154a:	89 44 24 04          	mov    %eax,0x4(%rsp)
  40154e:	8b 44 24 14          	mov    0x14(%rsp),%eax
  401552:	69 c0 59 30 00 00    	imul   $0x3059,%eax,%eax
  401558:	89 44 24 14          	mov    %eax,0x14(%rsp)
  40155c:	8b 44 24 1c          	mov    0x1c(%rsp),%eax
  401560:	69 c0 fb 3a 00 00    	imul   $0x3afb,%eax,%eax
  401566:	89 44 24 1c          	mov    %eax,0x1c(%rsp)
  40156a:	8b 44 24 24          	mov    0x24(%rsp),%eax
  40156e:	69 c0 1f 30 00 00    	imul   $0x301f,%eax,%eax
  401574:	89 44 24 24          	mov    %eax,0x24(%rsp)
  401578:	8b 44 24 0c          	mov    0xc(%rsp),%eax
  40157c:	69 c0 95 8b 00 00    	imul   $0x8b95,%eax,%eax
  401582:	89 44 24 0c          	mov    %eax,0xc(%rsp)
  401586:	8b 44 24 20          	mov    0x20(%rsp),%eax
  40158a:	69 c0 f6 71 00 00    	imul   $0x71f6,%eax,%eax
  401590:	89 44 24 20          	mov    %eax,0x20(%rsp)
  401594:	8b 44 24 18          	mov    0x18(%rsp),%eax
  401598:	69 c0 cd b5 00 00    	imul   $0xb5cd,%eax,%eax
  40159e:	89 44 24 18          	mov    %eax,0x18(%rsp)
  4015a2:	8b 44 24 1c          	mov    0x1c(%rsp),%eax
  4015a6:	69 c0 0d 31 00 00    	imul   $0x310d,%eax,%eax
  4015ac:	89 44 24 1c          	mov    %eax,0x1c(%rsp)
  4015b0:	8b 44 24 04          	mov    0x4(%rsp),%eax
  4015b4:	69 c0 83 df 00 00    	imul   $0xdf83,%eax,%eax
  4015ba:	89 44 24 04          	mov    %eax,0x4(%rsp)
  4015be:	8b 44 24 10          	mov    0x10(%rsp),%eax
  4015c2:	69 c0 a5 09 00 00    	imul   $0x9a5,%eax,%eax
  4015c8:	89 44 24 10          	mov    %eax,0x10(%rsp)
  4015cc:	8b 44 24 14          	mov    0x14(%rsp),%eax
  4015d0:	69 c0 74 f9 00 00    	imul   $0xf974,%eax,%eax
  4015d6:	89 44 24 14          	mov    %eax,0x14(%rsp)
  4015da:	8b 44 24 04          	mov    0x4(%rsp),%eax
  4015de:	69 c0 7e 31 00 00    	imul   $0x317e,%eax,%eax
  4015e4:	89 44 24 04          	mov    %eax,0x4(%rsp)
  4015e8:	8b 44 24 04          	mov    0x4(%rsp),%eax
  4015ec:	69 c0 0d 32 00 00    	imul   $0x320d,%eax,%eax
  4015f2:	89 44 24 04          	mov    %eax,0x4(%rsp)
  4015f6:	8b 04 24             	mov    (%rsp),%eax
  4015f9:	69 c0 ff b1 00 00    	imul   $0xb1ff,%eax,%eax
  4015ff:	89 04 24             	mov    %eax,(%rsp)
  401602:	8b 44 24 0c          	mov    0xc(%rsp),%eax
  401606:	69 c0 b0 73 00 00    	imul   $0x73b0,%eax,%eax
  40160c:	89 44 24 0c          	mov    %eax,0xc(%rsp)
  401610:	8b 04 24             	mov    (%rsp),%eax
  401613:	69 c0 4f 46 00 00    	imul   $0x464f,%eax,%eax
  401619:	89 04 24             	mov    %eax,(%rsp)
  40161c:	8b 44 24 24          	mov    0x24(%rsp),%eax
  401620:	69 c0 7d e6 00 00    	imul   $0xe67d,%eax,%eax
  401626:	89 44 24 24          	mov    %eax,0x24(%rsp)
  40162a:	8b 44 24 08          	mov    0x8(%rsp),%eax
  40162e:	69 c0 17 60 00 00    	imul   $0x6017,%eax,%eax
  401634:	89 44 24 08          	mov    %eax,0x8(%rsp)
  401638:	8b 44 24 14          	mov    0x14(%rsp),%eax
  40163c:	69 c0 a4 67 00 00    	imul   $0x67a4,%eax,%eax
  401642:	89 44 24 14          	mov    %eax,0x14(%rsp)
  401646:	8b 44 24 0c          	mov    0xc(%rsp),%eax
  40164a:	69 c0 d1 2a 00 00    	imul   $0x2ad1,%eax,%eax
  401650:	89 44 24 0c          	mov    %eax,0xc(%rsp)
  401654:	8b 44 24 18          	mov    0x18(%rsp),%eax
  401658:	69 c0 a6 8f 00 00    	imul   $0x8fa6,%eax,%eax
  40165e:	89 44 24 18          	mov    %eax,0x18(%rsp)
  401662:	8b 44 24 10          	mov    0x10(%rsp),%eax
  401666:	69 c0 d3 1b 00 00    	imul   $0x1bd3,%eax,%eax
  40166c:	89 44 24 10          	mov    %eax,0x10(%rsp)
  401670:	8b 44 24 0c          	mov    0xc(%rsp),%eax
  401674:	69 c0 d6 70 00 00    	imul   $0x70d6,%eax,%eax
  40167a:	89 44 24 0c          	mov    %eax,0xc(%rsp)
  40167e:	8b 44 24 1c          	mov    0x1c(%rsp),%eax
  401682:	69 c0 ad 0a 00 00    	imul   $0xaad,%eax,%eax
  401688:	89 44 24 1c          	mov    %eax,0x1c(%rsp)
  40168c:	8b 44 24 24          	mov    0x24(%rsp),%eax
  401690:	69 c0 d8 a4 00 00    	imul   $0xa4d8,%eax,%eax
  401696:	89 44 24 24          	mov    %eax,0x24(%rsp)
  40169a:	8b 44 24 10          	mov    0x10(%rsp),%eax
  40169e:	69 c0 28 04 00 00    	imul   $0x428,%eax,%eax
  4016a4:	89 44 24 10          	mov    %eax,0x10(%rsp)
  4016a8:	8b 44 24 18          	mov    0x18(%rsp),%eax
  4016ac:	69 c0 d8 66 00 00    	imul   $0x66d8,%eax,%eax
  4016b2:	89 44 24 18          	mov    %eax,0x18(%rsp)
  4016b6:	8b 44 24 1c          	mov    0x1c(%rsp),%eax
  4016ba:	69 c0 5d d3 00 00    	imul   $0xd35d,%eax,%eax
  4016c0:	89 44 24 1c          	mov    %eax,0x1c(%rsp)
  4016c4:	8b 04 24             	mov    (%rsp),%eax
  4016c7:	69 c0 ce 0d 00 00    	imul   $0xdce,%eax,%eax
  4016cd:	89 04 24             	mov    %eax,(%rsp)
  4016d0:	8b 44 24 20          	mov    0x20(%rsp),%eax
  4016d4:	69 c0 79 1a 00 00    	imul   $0x1a79,%eax,%eax
  4016da:	89 44 24 20          	mov    %eax,0x20(%rsp)
  4016de:	8b 44 24 1c          	mov    0x1c(%rsp),%eax
  4016e2:	69 c0 3e d2 00 00    	imul   $0xd23e,%eax,%eax
  4016e8:	89 44 24 1c          	mov    %eax,0x1c(%rsp)
  4016ec:	8b 44 24 0c          	mov    0xc(%rsp),%eax
  4016f0:	69 c0 0f 1e 00 00    	imul   $0x1e0f,%eax,%eax
  4016f6:	89 44 24 0c          	mov    %eax,0xc(%rsp)
  4016fa:	8b 44 24 18          	mov    0x18(%rsp),%eax
  4016fe:	69 c0 72 d7 00 00    	imul   $0xd772,%eax,%eax
  401704:	89 44 24 18          	mov    %eax,0x18(%rsp)
  401708:	8b 44 24 18          	mov    0x18(%rsp),%eax
  40170c:	69 c0 33 da 00 00    	imul   $0xda33,%eax,%eax
  401712:	89 44 24 18          	mov    %eax,0x18(%rsp)
  401716:	8b 44 24 20          	mov    0x20(%rsp),%eax
  40171a:	69 c0 5d 0e 00 00    	imul   $0xe5d,%eax,%eax
  401720:	89 44 24 20          	mov    %eax,0x20(%rsp)
  401724:	8b 44 24 10          	mov    0x10(%rsp),%eax
  401728:	69 c0 4f 32 00 00    	imul   $0x324f,%eax,%eax
  40172e:	89 44 24 10          	mov    %eax,0x10(%rsp)
  401732:	8b 44 24 0c          	mov    0xc(%rsp),%eax
  401736:	69 c0 cc a1 00 00    	imul   $0xa1cc,%eax,%eax
  40173c:	89 44 24 0c          	mov    %eax,0xc(%rsp)
  401740:	8b 04 24             	mov    (%rsp),%eax
  401743:	69 c0 78 e3 00 00    	imul   $0xe378,%eax,%eax
  401749:	89 04 24             	mov    %eax,(%rsp)
  40174c:	8b 44 24 14          	mov    0x14(%rsp),%eax
  401750:	69 c0 04 9b 00 00    	imul   $0x9b04,%eax,%eax
  401756:	89 44 24 14          	mov    %eax,0x14(%rsp)
  40175a:	8b 44 24 10          	mov    0x10(%rsp),%eax
  40175e:	69 c0 fc 62 00 00    	imul   $0x62fc,%eax,%eax
  401764:	89 44 24 10          	mov    %eax,0x10(%rsp)
  401768:	8b 44 24 10          	mov    0x10(%rsp),%eax
  40176c:	69 c0 78 02 00 00    	imul   $0x278,%eax,%eax
  401772:	89 44 24 10          	mov    %eax,0x10(%rsp)
  401776:	8b 04 24             	mov    (%rsp),%eax
  401779:	69 c0 28 de 00 00    	imul   $0xde28,%eax,%eax
  40177f:	89 04 24             	mov    %eax,(%rsp)
  401782:	8b 44 24 1c          	mov    0x1c(%rsp),%eax
  401786:	69 c0 ca 9c 00 00    	imul   $0x9cca,%eax,%eax
  40178c:	89 44 24 1c          	mov    %eax,0x1c(%rsp)
  401790:	8b 04 24             	mov    (%rsp),%eax
  401793:	69 c0 36 02 00 00    	imul   $0x236,%eax,%eax
  401799:	89 04 24             	mov    %eax,(%rsp)
  40179c:	8b 44 24 1c          	mov    0x1c(%rsp),%eax
  4017a0:	69 c0 e2 36 00 00    	imul   $0x36e2,%eax,%eax
  4017a6:	89 44 24 1c          	mov    %eax,0x1c(%rsp)
  4017aa:	8b 44 24 18          	mov    0x18(%rsp),%eax
  4017ae:	69 c0 17 2c 00 00    	imul   $0x2c17,%eax,%eax
  4017b4:	89 44 24 18          	mov    %eax,0x18(%rsp)
  4017b8:	8b 04 24             	mov    (%rsp),%eax
  4017bb:	69 c0 78 7d 00 00    	imul   $0x7d78,%eax,%eax
  4017c1:	89 04 24             	mov    %eax,(%rsp)
  4017c4:	8b 44 24 10          	mov    0x10(%rsp),%eax
  4017c8:	69 c0 db c1 00 00    	imul   $0xc1db,%eax,%eax
  4017ce:	89 44 24 10          	mov    %eax,0x10(%rsp)
  4017d2:	8b 44 24 18          	mov    0x18(%rsp),%eax
  4017d6:	69 c0 4c c8 00 00    	imul   $0xc84c,%eax,%eax
  4017dc:	89 44 24 18          	mov    %eax,0x18(%rsp)
  4017e0:	8b 44 24 08          	mov    0x8(%rsp),%eax
  4017e4:	69 c0 00 94 00 00    	imul   $0x9400,%eax,%eax
  4017ea:	89 44 24 08          	mov    %eax,0x8(%rsp)
  4017ee:	8b 44 24 10          	mov    0x10(%rsp),%eax
  4017f2:	69 c0 12 a1 00 00    	imul   $0xa112,%eax,%eax
  4017f8:	89 44 24 10          	mov    %eax,0x10(%rsp)
  4017fc:	8b 44 24 0c          	mov    0xc(%rsp),%eax
  401800:	69 c0 ae 74 00 00    	imul   $0x74ae,%eax,%eax
  401806:	89 44 24 0c          	mov    %eax,0xc(%rsp)
  40180a:	8b 44 24 18          	mov    0x18(%rsp),%eax
  40180e:	69 c0 73 14 00 00    	imul   $0x1473,%eax,%eax
  401814:	89 44 24 18          	mov    %eax,0x18(%rsp)
  401818:	8b 44 24 24          	mov    0x24(%rsp),%eax
  40181c:	69 c0 81 55 00 00    	imul   $0x5581,%eax,%eax
  401822:	89 44 24 24          	mov    %eax,0x24(%rsp)
  401826:	8b 44 24 1c          	mov    0x1c(%rsp),%eax
  40182a:	69 c0 4b 46 00 00    	imul   $0x464b,%eax,%eax
  401830:	89 44 24 1c          	mov    %eax,0x1c(%rsp)
  401834:	8b 44 24 20          	mov    0x20(%rsp),%eax
  401838:	69 c0 53 ef 00 00    	imul   $0xef53,%eax,%eax
  40183e:	89 44 24 20          	mov    %eax,0x20(%rsp)
  401842:	8b 44 24 14          	mov    0x14(%rsp),%eax
  401846:	69 c0 a1 1f 00 00    	imul   $0x1fa1,%eax,%eax
  40184c:	89 44 24 14          	mov    %eax,0x14(%rsp)
  401850:	8b 44 24 18          	mov    0x18(%rsp),%eax
  401854:	69 c0 14 b2 00 00    	imul   $0xb214,%eax,%eax
  40185a:	89 44 24 18          	mov    %eax,0x18(%rsp)
  40185e:	8b 44 24 20          	mov    0x20(%rsp),%eax
  401862:	89 c2                	mov    %eax,%edx
  401864:	c1 e2 08             	shl    $0x8,%edx
  401867:	c1 e0 0f             	shl    $0xf,%eax
  40186a:	29 d0                	sub    %edx,%eax
  40186c:	89 44 24 20          	mov    %eax,0x20(%rsp)
  401870:	ba 00 00 00 00       	mov    $0x0,%edx
  401875:	b8 00 00 00 00       	mov    $0x0,%eax
  40187a:	eb 0a                	jmp    401886 <scramble+0x4f7>
  40187c:	89 d1                	mov    %edx,%ecx
  40187e:	8b 0c 8c             	mov    (%rsp,%rcx,4),%ecx
  401881:	01 c8                	add    %ecx,%eax
  401883:	83 c2 01             	add    $0x1,%edx
  401886:	83 fa 09             	cmp    $0x9,%edx
  401889:	76 f1                	jbe    40187c <scramble+0x4ed>
  40188b:	48 8b 74 24 28       	mov    0x28(%rsp),%rsi
  401890:	64 48 33 34 25 28 00 	xor    %fs:0x28,%rsi
  401897:	00 00 
  401899:	74 05                	je     4018a0 <scramble+0x511>
  40189b:	e8 50 f4 ff ff       	callq  400cf0 <__stack_chk_fail@plt>
  4018a0:	48 83 c4 38          	add    $0x38,%rsp
  4018a4:	c3                   	retq   

00000000004018a5 <getbuf>:
  4018a5:	48 83 ec 28          	sub    $0x28,%rsp
  4018a9:	48 89 e7             	mov    %rsp,%rdi
  4018ac:	e8 7e 02 00 00       	callq  401b2f <Gets>
  4018b1:	b8 01 00 00 00       	mov    $0x1,%eax
  4018b6:	48 83 c4 28          	add    $0x28,%rsp
  4018ba:	c3                   	retq   

00000000004018bb <touch1>:
  4018bb:	48 83 ec 08          	sub    $0x8,%rsp
  4018bf:	c7 05 53 3c 20 00 01 	movl   $0x1,0x203c53(%rip)        # 60551c <vlevel>
  4018c6:	00 00 00 
  4018c9:	bf 72 33 40 00       	mov    $0x403372,%edi
  4018ce:	e8 fd f3 ff ff       	callq  400cd0 <puts@plt>
  4018d3:	bf 01 00 00 00       	mov    $0x1,%edi
  4018d8:	e8 97 04 00 00       	callq  401d74 <validate>
  4018dd:	bf 00 00 00 00       	mov    $0x0,%edi
  4018e2:	e8 69 f5 ff ff       	callq  400e50 <exit@plt>

00000000004018e7 <touch2>:
  4018e7:	48 83 ec 08          	sub    $0x8,%rsp
  4018eb:	89 fa                	mov    %edi,%edx
  4018ed:	c7 05 25 3c 20 00 02 	movl   $0x2,0x203c25(%rip)        # 60551c <vlevel>
  4018f4:	00 00 00 
  4018f7:	39 3d 27 3c 20 00    	cmp    %edi,0x203c27(%rip)        # 605524 <cookie>
  4018fd:	75 20                	jne    40191f <touch2+0x38>
  4018ff:	be 98 33 40 00       	mov    $0x403398,%esi
  401904:	bf 01 00 00 00       	mov    $0x1,%edi
  401909:	b8 00 00 00 00       	mov    $0x0,%eax
  40190e:	e8 ed f4 ff ff       	callq  400e00 <__printf_chk@plt>
  401913:	bf 02 00 00 00       	mov    $0x2,%edi
  401918:	e8 57 04 00 00       	callq  401d74 <validate>
  40191d:	eb 1e                	jmp    40193d <touch2+0x56>
  40191f:	be c0 33 40 00       	mov    $0x4033c0,%esi
  401924:	bf 01 00 00 00       	mov    $0x1,%edi
  401929:	b8 00 00 00 00       	mov    $0x0,%eax
  40192e:	e8 cd f4 ff ff       	callq  400e00 <__printf_chk@plt>
  401933:	bf 02 00 00 00       	mov    $0x2,%edi
  401938:	e8 f9 04 00 00       	callq  401e36 <fail>
  40193d:	bf 00 00 00 00       	mov    $0x0,%edi
  401942:	e8 09 f5 ff ff       	callq  400e50 <exit@plt>

0000000000401947 <hexmatch>:
  401947:	41 54                	push   %r12
  401949:	55                   	push   %rbp
  40194a:	53                   	push   %rbx
  40194b:	48 83 c4 80          	add    $0xffffffffffffff80,%rsp
  40194f:	89 fd                	mov    %edi,%ebp
  401951:	48 89 f3             	mov    %rsi,%rbx
  401954:	64 48 8b 04 25 28 00 	mov    %fs:0x28,%rax
  40195b:	00 00 
  40195d:	48 89 44 24 78       	mov    %rax,0x78(%rsp)
  401962:	31 c0                	xor    %eax,%eax
  401964:	e8 57 f4 ff ff       	callq  400dc0 <random@plt>
  401969:	48 89 c1             	mov    %rax,%rcx
  40196c:	48 ba 0b d7 a3 70 3d 	movabs $0xa3d70a3d70a3d70b,%rdx
  401973:	0a d7 a3 
  401976:	48 f7 ea             	imul   %rdx
  401979:	48 01 ca             	add    %rcx,%rdx
  40197c:	48 c1 fa 06          	sar    $0x6,%rdx
  401980:	48 89 c8             	mov    %rcx,%rax
  401983:	48 c1 f8 3f          	sar    $0x3f,%rax
  401987:	48 29 c2             	sub    %rax,%rdx
  40198a:	48 8d 04 92          	lea    (%rdx,%rdx,4),%rax
  40198e:	48 8d 14 80          	lea    (%rax,%rax,4),%rdx
  401992:	48 8d 04 95 00 00 00 	lea    0x0(,%rdx,4),%rax
  401999:	00 
  40199a:	48 29 c1             	sub    %rax,%rcx
  40199d:	4c 8d 24 0c          	lea    (%rsp,%rcx,1),%r12
  4019a1:	41 89 e8             	mov    %ebp,%r8d
  4019a4:	b9 8f 33 40 00       	mov    $0x40338f,%ecx
  4019a9:	48 c7 c2 ff ff ff ff 	mov    $0xffffffffffffffff,%rdx
  4019b0:	be 01 00 00 00       	mov    $0x1,%esi
  4019b5:	4c 89 e7             	mov    %r12,%rdi
  4019b8:	b8 00 00 00 00       	mov    $0x0,%eax
  4019bd:	e8 be f4 ff ff       	callq  400e80 <__sprintf_chk@plt>
  4019c2:	ba 09 00 00 00       	mov    $0x9,%edx
  4019c7:	4c 89 e6             	mov    %r12,%rsi
  4019ca:	48 89 df             	mov    %rbx,%rdi
  4019cd:	e8 de f2 ff ff       	callq  400cb0 <strncmp@plt>
  4019d2:	85 c0                	test   %eax,%eax
  4019d4:	0f 94 c0             	sete   %al
  4019d7:	48 8b 5c 24 78       	mov    0x78(%rsp),%rbx
  4019dc:	64 48 33 1c 25 28 00 	xor    %fs:0x28,%rbx
  4019e3:	00 00 
  4019e5:	74 05                	je     4019ec <hexmatch+0xa5>
  4019e7:	e8 04 f3 ff ff       	callq  400cf0 <__stack_chk_fail@plt>
  4019ec:	0f b6 c0             	movzbl %al,%eax
  4019ef:	48 83 ec 80          	sub    $0xffffffffffffff80,%rsp
  4019f3:	5b                   	pop    %rbx
  4019f4:	5d                   	pop    %rbp
  4019f5:	41 5c                	pop    %r12
  4019f7:	c3                   	retq   

00000000004019f8 <touch3>:
  4019f8:	53                   	push   %rbx
  4019f9:	48 89 fb             	mov    %rdi,%rbx
  4019fc:	c7 05 16 3b 20 00 03 	movl   $0x3,0x203b16(%rip)        # 60551c <vlevel>
  401a03:	00 00 00 
  401a06:	48 89 fe             	mov    %rdi,%rsi
  401a09:	8b 3d 15 3b 20 00    	mov    0x203b15(%rip),%edi        # 605524 <cookie>
  401a0f:	e8 33 ff ff ff       	callq  401947 <hexmatch>
  401a14:	85 c0                	test   %eax,%eax
  401a16:	74 23                	je     401a3b <touch3+0x43>
  401a18:	48 89 da             	mov    %rbx,%rdx
  401a1b:	be e8 33 40 00       	mov    $0x4033e8,%esi
  401a20:	bf 01 00 00 00       	mov    $0x1,%edi
  401a25:	b8 00 00 00 00       	mov    $0x0,%eax
  401a2a:	e8 d1 f3 ff ff       	callq  400e00 <__printf_chk@plt>
  401a2f:	bf 03 00 00 00       	mov    $0x3,%edi
  401a34:	e8 3b 03 00 00       	callq  401d74 <validate>
  401a39:	eb 21                	jmp    401a5c <touch3+0x64>
  401a3b:	48 89 da             	mov    %rbx,%rdx
  401a3e:	be 10 34 40 00       	mov    $0x403410,%esi
  401a43:	bf 01 00 00 00       	mov    $0x1,%edi
  401a48:	b8 00 00 00 00       	mov    $0x0,%eax
  401a4d:	e8 ae f3 ff ff       	callq  400e00 <__printf_chk@plt>
  401a52:	bf 03 00 00 00       	mov    $0x3,%edi
  401a57:	e8 da 03 00 00       	callq  401e36 <fail>
  401a5c:	bf 00 00 00 00       	mov    $0x0,%edi
  401a61:	e8 ea f3 ff ff       	callq  400e50 <exit@plt>

0000000000401a66 <test>:
  401a66:	48 83 ec 08          	sub    $0x8,%rsp
  401a6a:	b8 00 00 00 00       	mov    $0x0,%eax
  401a6f:	e8 31 fe ff ff       	callq  4018a5 <getbuf>
  401a74:	89 c2                	mov    %eax,%edx
  401a76:	be 38 34 40 00       	mov    $0x403438,%esi
  401a7b:	bf 01 00 00 00       	mov    $0x1,%edi
  401a80:	b8 00 00 00 00       	mov    $0x0,%eax
  401a85:	e8 76 f3 ff ff       	callq  400e00 <__printf_chk@plt>
  401a8a:	48 83 c4 08          	add    $0x8,%rsp
  401a8e:	c3                   	retq   

0000000000401a8f <save_char>:
  401a8f:	8b 05 af 46 20 00    	mov    0x2046af(%rip),%eax        # 606144 <gets_cnt>
  401a95:	3d ff 03 00 00       	cmp    $0x3ff,%eax
  401a9a:	7f 49                	jg     401ae5 <save_char+0x56>
  401a9c:	8d 14 40             	lea    (%rax,%rax,2),%edx
  401a9f:	89 f9                	mov    %edi,%ecx
  401aa1:	c0 e9 04             	shr    $0x4,%cl
  401aa4:	83 e1 0f             	and    $0xf,%ecx
  401aa7:	0f b6 b1 60 37 40 00 	movzbl 0x403760(%rcx),%esi
  401aae:	48 63 ca             	movslq %edx,%rcx
  401ab1:	40 88 b1 40 55 60 00 	mov    %sil,0x605540(%rcx)
  401ab8:	8d 4a 01             	lea    0x1(%rdx),%ecx
  401abb:	83 e7 0f             	and    $0xf,%edi
  401abe:	0f b6 b7 60 37 40 00 	movzbl 0x403760(%rdi),%esi
  401ac5:	48 63 c9             	movslq %ecx,%rcx
  401ac8:	40 88 b1 40 55 60 00 	mov    %sil,0x605540(%rcx)
  401acf:	83 c2 02             	add    $0x2,%edx
  401ad2:	48 63 d2             	movslq %edx,%rdx
  401ad5:	c6 82 40 55 60 00 20 	movb   $0x20,0x605540(%rdx)
  401adc:	83 c0 01             	add    $0x1,%eax
  401adf:	89 05 5f 46 20 00    	mov    %eax,0x20465f(%rip)        # 606144 <gets_cnt>
  401ae5:	f3 c3                	repz retq 

0000000000401ae7 <save_term>:
  401ae7:	8b 05 57 46 20 00    	mov    0x204657(%rip),%eax        # 606144 <gets_cnt>
  401aed:	8d 04 40             	lea    (%rax,%rax,2),%eax
  401af0:	48 98                	cltq   
  401af2:	c6 80 40 55 60 00 00 	movb   $0x0,0x605540(%rax)
  401af9:	c3                   	retq   

0000000000401afa <check_fail>:
  401afa:	48 83 ec 08          	sub    $0x8,%rsp
  401afe:	0f be 15 43 46 20 00 	movsbl 0x204643(%rip),%edx        # 606148 <target_prefix>
  401b05:	41 b8 40 55 60 00    	mov    $0x605540,%r8d
  401b0b:	8b 0d 07 3a 20 00    	mov    0x203a07(%rip),%ecx        # 605518 <check_level>
  401b11:	be 5b 34 40 00       	mov    $0x40345b,%esi
  401b16:	bf 01 00 00 00       	mov    $0x1,%edi
  401b1b:	b8 00 00 00 00       	mov    $0x0,%eax
  401b20:	e8 db f2 ff ff       	callq  400e00 <__printf_chk@plt>
  401b25:	bf 01 00 00 00       	mov    $0x1,%edi
  401b2a:	e8 21 f3 ff ff       	callq  400e50 <exit@plt>

0000000000401b2f <Gets>:
  401b2f:	41 54                	push   %r12
  401b31:	55                   	push   %rbp
  401b32:	53                   	push   %rbx
  401b33:	49 89 fc             	mov    %rdi,%r12
  401b36:	c7 05 04 46 20 00 00 	movl   $0x0,0x204604(%rip)        # 606144 <gets_cnt>
  401b3d:	00 00 00 
  401b40:	48 89 fb             	mov    %rdi,%rbx
  401b43:	eb 11                	jmp    401b56 <Gets+0x27>
  401b45:	48 8d 6b 01          	lea    0x1(%rbx),%rbp
  401b49:	88 03                	mov    %al,(%rbx)
  401b4b:	0f b6 f8             	movzbl %al,%edi
  401b4e:	e8 3c ff ff ff       	callq  401a8f <save_char>
  401b53:	48 89 eb             	mov    %rbp,%rbx
  401b56:	48 8b 3d b3 39 20 00 	mov    0x2039b3(%rip),%rdi        # 605510 <infile>
  401b5d:	e8 6e f2 ff ff       	callq  400dd0 <_IO_getc@plt>
  401b62:	83 f8 ff             	cmp    $0xffffffff,%eax
  401b65:	74 05                	je     401b6c <Gets+0x3d>
  401b67:	83 f8 0a             	cmp    $0xa,%eax
  401b6a:	75 d9                	jne    401b45 <Gets+0x16>
  401b6c:	c6 03 00             	movb   $0x0,(%rbx)
  401b6f:	b8 00 00 00 00       	mov    $0x0,%eax
  401b74:	e8 6e ff ff ff       	callq  401ae7 <save_term>
  401b79:	4c 89 e0             	mov    %r12,%rax
  401b7c:	5b                   	pop    %rbx
  401b7d:	5d                   	pop    %rbp
  401b7e:	41 5c                	pop    %r12
  401b80:	c3                   	retq   

0000000000401b81 <notify_server>:
  401b81:	53                   	push   %rbx
  401b82:	48 81 ec 10 40 00 00 	sub    $0x4010,%rsp
  401b89:	64 48 8b 04 25 28 00 	mov    %fs:0x28,%rax
  401b90:	00 00 
  401b92:	48 89 84 24 08 40 00 	mov    %rax,0x4008(%rsp)
  401b99:	00 
  401b9a:	31 c0                	xor    %eax,%eax
  401b9c:	83 3d 85 39 20 00 00 	cmpl   $0x0,0x203985(%rip)        # 605528 <is_checker>
  401ba3:	0f 85 aa 01 00 00    	jne    401d53 <notify_server+0x1d2>
  401ba9:	89 fb                	mov    %edi,%ebx
  401bab:	8b 05 93 45 20 00    	mov    0x204593(%rip),%eax        # 606144 <gets_cnt>
  401bb1:	83 c0 64             	add    $0x64,%eax
  401bb4:	3d 00 20 00 00       	cmp    $0x2000,%eax
  401bb9:	7e 1e                	jle    401bd9 <notify_server+0x58>
  401bbb:	be 90 35 40 00       	mov    $0x403590,%esi
  401bc0:	bf 01 00 00 00       	mov    $0x1,%edi
  401bc5:	b8 00 00 00 00       	mov    $0x0,%eax
  401bca:	e8 31 f2 ff ff       	callq  400e00 <__printf_chk@plt>
  401bcf:	bf 01 00 00 00       	mov    $0x1,%edi
  401bd4:	e8 77 f2 ff ff       	callq  400e50 <exit@plt>
  401bd9:	0f be 05 68 45 20 00 	movsbl 0x204568(%rip),%eax        # 606148 <target_prefix>
  401be0:	83 3d c1 38 20 00 00 	cmpl   $0x0,0x2038c1(%rip)        # 6054a8 <notify>
  401be7:	74 08                	je     401bf1 <notify_server+0x70>
  401be9:	8b 15 31 39 20 00    	mov    0x203931(%rip),%edx        # 605520 <authkey>
  401bef:	eb 05                	jmp    401bf6 <notify_server+0x75>
  401bf1:	ba ff ff ff ff       	mov    $0xffffffff,%edx
  401bf6:	85 db                	test   %ebx,%ebx
  401bf8:	74 08                	je     401c02 <notify_server+0x81>
  401bfa:	41 b9 71 34 40 00    	mov    $0x403471,%r9d
  401c00:	eb 06                	jmp    401c08 <notify_server+0x87>
  401c02:	41 b9 76 34 40 00    	mov    $0x403476,%r9d
  401c08:	68 40 55 60 00       	pushq  $0x605540
  401c0d:	56                   	push   %rsi
  401c0e:	50                   	push   %rax
  401c0f:	52                   	push   %rdx
  401c10:	44 8b 05 51 35 20 00 	mov    0x203551(%rip),%r8d        # 605168 <target_id>
  401c17:	b9 7b 34 40 00       	mov    $0x40347b,%ecx
  401c1c:	ba 00 20 00 00       	mov    $0x2000,%edx
  401c21:	be 01 00 00 00       	mov    $0x1,%esi
  401c26:	48 8d 7c 24 20       	lea    0x20(%rsp),%rdi
  401c2b:	b8 00 00 00 00       	mov    $0x0,%eax
  401c30:	e8 4b f2 ff ff       	callq  400e80 <__sprintf_chk@plt>
  401c35:	48 83 c4 20          	add    $0x20,%rsp
  401c39:	83 3d 68 38 20 00 00 	cmpl   $0x0,0x203868(%rip)        # 6054a8 <notify>
  401c40:	0f 84 81 00 00 00    	je     401cc7 <notify_server+0x146>
  401c46:	85 db                	test   %ebx,%ebx
  401c48:	74 6e                	je     401cb8 <notify_server+0x137>
  401c4a:	4c 8d 8c 24 00 20 00 	lea    0x2000(%rsp),%r9
  401c51:	00 
  401c52:	41 b8 00 00 00 00    	mov    $0x0,%r8d
  401c58:	48 89 e1             	mov    %rsp,%rcx
  401c5b:	48 8b 15 0e 35 20 00 	mov    0x20350e(%rip),%rdx        # 605170 <lab>
  401c62:	48 8b 35 0f 35 20 00 	mov    0x20350f(%rip),%rsi        # 605178 <course>
  401c69:	48 8b 3d f0 34 20 00 	mov    0x2034f0(%rip),%rdi        # 605160 <user_id>
  401c70:	e8 ef 10 00 00       	callq  402d64 <driver_post>
  401c75:	85 c0                	test   %eax,%eax
  401c77:	79 26                	jns    401c9f <notify_server+0x11e>
  401c79:	48 8d 94 24 00 20 00 	lea    0x2000(%rsp),%rdx
  401c80:	00 
  401c81:	be 97 34 40 00       	mov    $0x403497,%esi
  401c86:	bf 01 00 00 00       	mov    $0x1,%edi
  401c8b:	b8 00 00 00 00       	mov    $0x0,%eax
  401c90:	e8 6b f1 ff ff       	callq  400e00 <__printf_chk@plt>
  401c95:	bf 01 00 00 00       	mov    $0x1,%edi
  401c9a:	e8 b1 f1 ff ff       	callq  400e50 <exit@plt>
  401c9f:	bf c0 35 40 00       	mov    $0x4035c0,%edi
  401ca4:	e8 27 f0 ff ff       	callq  400cd0 <puts@plt>
  401ca9:	bf a3 34 40 00       	mov    $0x4034a3,%edi
  401cae:	e8 1d f0 ff ff       	callq  400cd0 <puts@plt>
  401cb3:	e9 9b 00 00 00       	jmpq   401d53 <notify_server+0x1d2>
  401cb8:	bf ad 34 40 00       	mov    $0x4034ad,%edi
  401cbd:	e8 0e f0 ff ff       	callq  400cd0 <puts@plt>
  401cc2:	e9 8c 00 00 00       	jmpq   401d53 <notify_server+0x1d2>
  401cc7:	85 db                	test   %ebx,%ebx
  401cc9:	74 07                	je     401cd2 <notify_server+0x151>
  401ccb:	ba 71 34 40 00       	mov    $0x403471,%edx
  401cd0:	eb 05                	jmp    401cd7 <notify_server+0x156>
  401cd2:	ba 76 34 40 00       	mov    $0x403476,%edx
  401cd7:	be f8 35 40 00       	mov    $0x4035f8,%esi
  401cdc:	bf 01 00 00 00       	mov    $0x1,%edi
  401ce1:	b8 00 00 00 00       	mov    $0x0,%eax
  401ce6:	e8 15 f1 ff ff       	callq  400e00 <__printf_chk@plt>
  401ceb:	48 8b 15 6e 34 20 00 	mov    0x20346e(%rip),%rdx        # 605160 <user_id>
  401cf2:	be b4 34 40 00       	mov    $0x4034b4,%esi
  401cf7:	bf 01 00 00 00       	mov    $0x1,%edi
  401cfc:	b8 00 00 00 00       	mov    $0x0,%eax
  401d01:	e8 fa f0 ff ff       	callq  400e00 <__printf_chk@plt>
  401d06:	48 8b 15 6b 34 20 00 	mov    0x20346b(%rip),%rdx        # 605178 <course>
  401d0d:	be c1 34 40 00       	mov    $0x4034c1,%esi
  401d12:	bf 01 00 00 00       	mov    $0x1,%edi
  401d17:	b8 00 00 00 00       	mov    $0x0,%eax
  401d1c:	e8 df f0 ff ff       	callq  400e00 <__printf_chk@plt>
  401d21:	48 8b 15 48 34 20 00 	mov    0x203448(%rip),%rdx        # 605170 <lab>
  401d28:	be cd 34 40 00       	mov    $0x4034cd,%esi
  401d2d:	bf 01 00 00 00       	mov    $0x1,%edi
  401d32:	b8 00 00 00 00       	mov    $0x0,%eax
  401d37:	e8 c4 f0 ff ff       	callq  400e00 <__printf_chk@plt>
  401d3c:	48 89 e2             	mov    %rsp,%rdx
  401d3f:	be d6 34 40 00       	mov    $0x4034d6,%esi
  401d44:	bf 01 00 00 00       	mov    $0x1,%edi
  401d49:	b8 00 00 00 00       	mov    $0x0,%eax
  401d4e:	e8 ad f0 ff ff       	callq  400e00 <__printf_chk@plt>
  401d53:	48 8b 84 24 08 40 00 	mov    0x4008(%rsp),%rax
  401d5a:	00 
  401d5b:	64 48 33 04 25 28 00 	xor    %fs:0x28,%rax
  401d62:	00 00 
  401d64:	74 05                	je     401d6b <notify_server+0x1ea>
  401d66:	e8 85 ef ff ff       	callq  400cf0 <__stack_chk_fail@plt>
  401d6b:	48 81 c4 10 40 00 00 	add    $0x4010,%rsp
  401d72:	5b                   	pop    %rbx
  401d73:	c3                   	retq   

0000000000401d74 <validate>:
  401d74:	53                   	push   %rbx
  401d75:	89 fb                	mov    %edi,%ebx
  401d77:	83 3d aa 37 20 00 00 	cmpl   $0x0,0x2037aa(%rip)        # 605528 <is_checker>
  401d7e:	74 6b                	je     401deb <validate+0x77>
  401d80:	39 3d 96 37 20 00    	cmp    %edi,0x203796(%rip)        # 60551c <vlevel>
  401d86:	74 14                	je     401d9c <validate+0x28>
  401d88:	bf e2 34 40 00       	mov    $0x4034e2,%edi
  401d8d:	e8 3e ef ff ff       	callq  400cd0 <puts@plt>
  401d92:	b8 00 00 00 00       	mov    $0x0,%eax
  401d97:	e8 5e fd ff ff       	callq  401afa <check_fail>
  401d9c:	8b 15 76 37 20 00    	mov    0x203776(%rip),%edx        # 605518 <check_level>
  401da2:	39 d7                	cmp    %edx,%edi
  401da4:	74 20                	je     401dc6 <validate+0x52>
  401da6:	89 f9                	mov    %edi,%ecx
  401da8:	be 20 36 40 00       	mov    $0x403620,%esi
  401dad:	bf 01 00 00 00       	mov    $0x1,%edi
  401db2:	b8 00 00 00 00       	mov    $0x0,%eax
  401db7:	e8 44 f0 ff ff       	callq  400e00 <__printf_chk@plt>
  401dbc:	b8 00 00 00 00       	mov    $0x0,%eax
  401dc1:	e8 34 fd ff ff       	callq  401afa <check_fail>
  401dc6:	0f be 15 7b 43 20 00 	movsbl 0x20437b(%rip),%edx        # 606148 <target_prefix>
  401dcd:	41 b8 40 55 60 00    	mov    $0x605540,%r8d
  401dd3:	89 f9                	mov    %edi,%ecx
  401dd5:	be 00 35 40 00       	mov    $0x403500,%esi
  401dda:	bf 01 00 00 00       	mov    $0x1,%edi
  401ddf:	b8 00 00 00 00       	mov    $0x0,%eax
  401de4:	e8 17 f0 ff ff       	callq  400e00 <__printf_chk@plt>
  401de9:	eb 49                	jmp    401e34 <validate+0xc0>
  401deb:	3b 3d 2b 37 20 00    	cmp    0x20372b(%rip),%edi        # 60551c <vlevel>
  401df1:	74 18                	je     401e0b <validate+0x97>
  401df3:	bf e2 34 40 00       	mov    $0x4034e2,%edi
  401df8:	e8 d3 ee ff ff       	callq  400cd0 <puts@plt>
  401dfd:	89 de                	mov    %ebx,%esi
  401dff:	bf 00 00 00 00       	mov    $0x0,%edi
  401e04:	e8 78 fd ff ff       	callq  401b81 <notify_server>
  401e09:	eb 29                	jmp    401e34 <validate+0xc0>
  401e0b:	0f be 0d 36 43 20 00 	movsbl 0x204336(%rip),%ecx        # 606148 <target_prefix>
  401e12:	89 fa                	mov    %edi,%edx
  401e14:	be 48 36 40 00       	mov    $0x403648,%esi
  401e19:	bf 01 00 00 00       	mov    $0x1,%edi
  401e1e:	b8 00 00 00 00       	mov    $0x0,%eax
  401e23:	e8 d8 ef ff ff       	callq  400e00 <__printf_chk@plt>
  401e28:	89 de                	mov    %ebx,%esi
  401e2a:	bf 01 00 00 00       	mov    $0x1,%edi
  401e2f:	e8 4d fd ff ff       	callq  401b81 <notify_server>
  401e34:	5b                   	pop    %rbx
  401e35:	c3                   	retq   

0000000000401e36 <fail>:
  401e36:	48 83 ec 08          	sub    $0x8,%rsp
  401e3a:	83 3d e7 36 20 00 00 	cmpl   $0x0,0x2036e7(%rip)        # 605528 <is_checker>
  401e41:	74 0a                	je     401e4d <fail+0x17>
  401e43:	b8 00 00 00 00       	mov    $0x0,%eax
  401e48:	e8 ad fc ff ff       	callq  401afa <check_fail>
  401e4d:	89 fe                	mov    %edi,%esi
  401e4f:	bf 00 00 00 00       	mov    $0x0,%edi
  401e54:	e8 28 fd ff ff       	callq  401b81 <notify_server>
  401e59:	48 83 c4 08          	add    $0x8,%rsp
  401e5d:	c3                   	retq   

0000000000401e5e <bushandler>:
  401e5e:	48 83 ec 08          	sub    $0x8,%rsp
  401e62:	83 3d bf 36 20 00 00 	cmpl   $0x0,0x2036bf(%rip)        # 605528 <is_checker>
  401e69:	74 14                	je     401e7f <bushandler+0x21>
  401e6b:	bf 15 35 40 00       	mov    $0x403515,%edi
  401e70:	e8 5b ee ff ff       	callq  400cd0 <puts@plt>
  401e75:	b8 00 00 00 00       	mov    $0x0,%eax
  401e7a:	e8 7b fc ff ff       	callq  401afa <check_fail>
  401e7f:	bf 80 36 40 00       	mov    $0x403680,%edi
  401e84:	e8 47 ee ff ff       	callq  400cd0 <puts@plt>
  401e89:	bf 1f 35 40 00       	mov    $0x40351f,%edi
  401e8e:	e8 3d ee ff ff       	callq  400cd0 <puts@plt>
  401e93:	be 00 00 00 00       	mov    $0x0,%esi
  401e98:	bf 00 00 00 00       	mov    $0x0,%edi
  401e9d:	e8 df fc ff ff       	callq  401b81 <notify_server>
  401ea2:	bf 01 00 00 00       	mov    $0x1,%edi
  401ea7:	e8 a4 ef ff ff       	callq  400e50 <exit@plt>

0000000000401eac <seghandler>:
  401eac:	48 83 ec 08          	sub    $0x8,%rsp
  401eb0:	83 3d 71 36 20 00 00 	cmpl   $0x0,0x203671(%rip)        # 605528 <is_checker>
  401eb7:	74 14                	je     401ecd <seghandler+0x21>
  401eb9:	bf 35 35 40 00       	mov    $0x403535,%edi
  401ebe:	e8 0d ee ff ff       	callq  400cd0 <puts@plt>
  401ec3:	b8 00 00 00 00       	mov    $0x0,%eax
  401ec8:	e8 2d fc ff ff       	callq  401afa <check_fail>
  401ecd:	bf a0 36 40 00       	mov    $0x4036a0,%edi
  401ed2:	e8 f9 ed ff ff       	callq  400cd0 <puts@plt>
  401ed7:	bf 1f 35 40 00       	mov    $0x40351f,%edi
  401edc:	e8 ef ed ff ff       	callq  400cd0 <puts@plt>
  401ee1:	be 00 00 00 00       	mov    $0x0,%esi
  401ee6:	bf 00 00 00 00       	mov    $0x0,%edi
  401eeb:	e8 91 fc ff ff       	callq  401b81 <notify_server>
  401ef0:	bf 01 00 00 00       	mov    $0x1,%edi
  401ef5:	e8 56 ef ff ff       	callq  400e50 <exit@plt>

0000000000401efa <illegalhandler>:
  401efa:	48 83 ec 08          	sub    $0x8,%rsp
  401efe:	83 3d 23 36 20 00 00 	cmpl   $0x0,0x203623(%rip)        # 605528 <is_checker>
  401f05:	74 14                	je     401f1b <illegalhandler+0x21>
  401f07:	bf 48 35 40 00       	mov    $0x403548,%edi
  401f0c:	e8 bf ed ff ff       	callq  400cd0 <puts@plt>
  401f11:	b8 00 00 00 00       	mov    $0x0,%eax
  401f16:	e8 df fb ff ff       	callq  401afa <check_fail>
  401f1b:	bf c8 36 40 00       	mov    $0x4036c8,%edi
  401f20:	e8 ab ed ff ff       	callq  400cd0 <puts@plt>
  401f25:	bf 1f 35 40 00       	mov    $0x40351f,%edi
  401f2a:	e8 a1 ed ff ff       	callq  400cd0 <puts@plt>
  401f2f:	be 00 00 00 00       	mov    $0x0,%esi
  401f34:	bf 00 00 00 00       	mov    $0x0,%edi
  401f39:	e8 43 fc ff ff       	callq  401b81 <notify_server>
  401f3e:	bf 01 00 00 00       	mov    $0x1,%edi
  401f43:	e8 08 ef ff ff       	callq  400e50 <exit@plt>

0000000000401f48 <sigalrmhandler>:
  401f48:	48 83 ec 08          	sub    $0x8,%rsp
  401f4c:	83 3d d5 35 20 00 00 	cmpl   $0x0,0x2035d5(%rip)        # 605528 <is_checker>
  401f53:	74 14                	je     401f69 <sigalrmhandler+0x21>
  401f55:	bf 5c 35 40 00       	mov    $0x40355c,%edi
  401f5a:	e8 71 ed ff ff       	callq  400cd0 <puts@plt>
  401f5f:	b8 00 00 00 00       	mov    $0x0,%eax
  401f64:	e8 91 fb ff ff       	callq  401afa <check_fail>
  401f69:	ba 05 00 00 00       	mov    $0x5,%edx
  401f6e:	be f8 36 40 00       	mov    $0x4036f8,%esi
  401f73:	bf 01 00 00 00       	mov    $0x1,%edi
  401f78:	b8 00 00 00 00       	mov    $0x0,%eax
  401f7d:	e8 7e ee ff ff       	callq  400e00 <__printf_chk@plt>
  401f82:	be 00 00 00 00       	mov    $0x0,%esi
  401f87:	bf 00 00 00 00       	mov    $0x0,%edi
  401f8c:	e8 f0 fb ff ff       	callq  401b81 <notify_server>
  401f91:	bf 01 00 00 00       	mov    $0x1,%edi
  401f96:	e8 b5 ee ff ff       	callq  400e50 <exit@plt>

0000000000401f9b <launch>:
  401f9b:	55                   	push   %rbp
  401f9c:	48 89 e5             	mov    %rsp,%rbp
  401f9f:	48 83 ec 10          	sub    $0x10,%rsp
  401fa3:	48 89 fa             	mov    %rdi,%rdx
  401fa6:	64 48 8b 04 25 28 00 	mov    %fs:0x28,%rax
  401fad:	00 00 
  401faf:	48 89 45 f8          	mov    %rax,-0x8(%rbp)
  401fb3:	31 c0                	xor    %eax,%eax
  401fb5:	48 8d 47 1e          	lea    0x1e(%rdi),%rax
  401fb9:	48 83 e0 f0          	and    $0xfffffffffffffff0,%rax
  401fbd:	48 29 c4             	sub    %rax,%rsp
  401fc0:	48 8d 7c 24 0f       	lea    0xf(%rsp),%rdi
  401fc5:	48 83 e7 f0          	and    $0xfffffffffffffff0,%rdi
  401fc9:	be f4 00 00 00       	mov    $0xf4,%esi
  401fce:	e8 3d ed ff ff       	callq  400d10 <memset@plt>
  401fd3:	48 8b 05 e6 34 20 00 	mov    0x2034e6(%rip),%rax        # 6054c0 <stdin@@GLIBC_2.2.5>
  401fda:	48 39 05 2f 35 20 00 	cmp    %rax,0x20352f(%rip)        # 605510 <infile>
  401fe1:	75 14                	jne    401ff7 <launch+0x5c>
  401fe3:	be 64 35 40 00       	mov    $0x403564,%esi
  401fe8:	bf 01 00 00 00       	mov    $0x1,%edi
  401fed:	b8 00 00 00 00       	mov    $0x0,%eax
  401ff2:	e8 09 ee ff ff       	callq  400e00 <__printf_chk@plt>
  401ff7:	c7 05 1b 35 20 00 00 	movl   $0x0,0x20351b(%rip)        # 60551c <vlevel>
  401ffe:	00 00 00 
  402001:	b8 00 00 00 00       	mov    $0x0,%eax
  402006:	e8 5b fa ff ff       	callq  401a66 <test>
  40200b:	83 3d 16 35 20 00 00 	cmpl   $0x0,0x203516(%rip)        # 605528 <is_checker>
  402012:	74 14                	je     402028 <launch+0x8d>
  402014:	bf 71 35 40 00       	mov    $0x403571,%edi
  402019:	e8 b2 ec ff ff       	callq  400cd0 <puts@plt>
  40201e:	b8 00 00 00 00       	mov    $0x0,%eax
  402023:	e8 d2 fa ff ff       	callq  401afa <check_fail>
  402028:	bf 7c 35 40 00       	mov    $0x40357c,%edi
  40202d:	e8 9e ec ff ff       	callq  400cd0 <puts@plt>
  402032:	48 8b 45 f8          	mov    -0x8(%rbp),%rax
  402036:	64 48 33 04 25 28 00 	xor    %fs:0x28,%rax
  40203d:	00 00 
  40203f:	74 05                	je     402046 <launch+0xab>
  402041:	e8 aa ec ff ff       	callq  400cf0 <__stack_chk_fail@plt>
  402046:	c9                   	leaveq 
  402047:	c3                   	retq   

0000000000402048 <stable_launch>:
  402048:	53                   	push   %rbx
  402049:	48 89 3d b8 34 20 00 	mov    %rdi,0x2034b8(%rip)        # 605508 <global_offset>
  402050:	41 b9 00 00 00 00    	mov    $0x0,%r9d
  402056:	41 b8 00 00 00 00    	mov    $0x0,%r8d
  40205c:	b9 32 01 00 00       	mov    $0x132,%ecx
  402061:	ba 07 00 00 00       	mov    $0x7,%edx
  402066:	be 00 00 10 00       	mov    $0x100000,%esi
  40206b:	bf 00 60 58 55       	mov    $0x55586000,%edi
  402070:	e8 8b ec ff ff       	callq  400d00 <mmap@plt>
  402075:	48 89 c3             	mov    %rax,%rbx
  402078:	48 3d 00 60 58 55    	cmp    $0x55586000,%rax
  40207e:	74 37                	je     4020b7 <stable_launch+0x6f>
  402080:	be 00 00 10 00       	mov    $0x100000,%esi
  402085:	48 89 c7             	mov    %rax,%rdi
  402088:	e8 63 ed ff ff       	callq  400df0 <munmap@plt>
  40208d:	b9 00 60 58 55       	mov    $0x55586000,%ecx
  402092:	ba 30 37 40 00       	mov    $0x403730,%edx
  402097:	be 01 00 00 00       	mov    $0x1,%esi
  40209c:	48 8b 3d 3d 34 20 00 	mov    0x20343d(%rip),%rdi        # 6054e0 <stderr@@GLIBC_2.2.5>
  4020a3:	b8 00 00 00 00       	mov    $0x0,%eax
  4020a8:	e8 c3 ed ff ff       	callq  400e70 <__fprintf_chk@plt>
  4020ad:	bf 01 00 00 00       	mov    $0x1,%edi
  4020b2:	e8 99 ed ff ff       	callq  400e50 <exit@plt>
  4020b7:	48 8d 90 f8 ff 0f 00 	lea    0xffff8(%rax),%rdx
  4020be:	48 89 15 8b 40 20 00 	mov    %rdx,0x20408b(%rip)        # 606150 <stack_top>
  4020c5:	48 89 e0             	mov    %rsp,%rax
  4020c8:	48 89 d4             	mov    %rdx,%rsp
  4020cb:	48 89 c2             	mov    %rax,%rdx
  4020ce:	48 89 15 2b 34 20 00 	mov    %rdx,0x20342b(%rip)        # 605500 <global_save_stack>
  4020d5:	48 8b 3d 2c 34 20 00 	mov    0x20342c(%rip),%rdi        # 605508 <global_offset>
  4020dc:	e8 ba fe ff ff       	callq  401f9b <launch>
  4020e1:	48 8b 05 18 34 20 00 	mov    0x203418(%rip),%rax        # 605500 <global_save_stack>
  4020e8:	48 89 c4             	mov    %rax,%rsp
  4020eb:	be 00 00 10 00       	mov    $0x100000,%esi
  4020f0:	48 89 df             	mov    %rbx,%rdi
  4020f3:	e8 f8 ec ff ff       	callq  400df0 <munmap@plt>
  4020f8:	5b                   	pop    %rbx
  4020f9:	c3                   	retq   

00000000004020fa <rio_readinitb>:
  4020fa:	89 37                	mov    %esi,(%rdi)
  4020fc:	c7 47 04 00 00 00 00 	movl   $0x0,0x4(%rdi)
  402103:	48 8d 47 10          	lea    0x10(%rdi),%rax
  402107:	48 89 47 08          	mov    %rax,0x8(%rdi)
  40210b:	c3                   	retq   

000000000040210c <sigalrm_handler>:
  40210c:	48 83 ec 08          	sub    $0x8,%rsp
  402110:	b9 00 00 00 00       	mov    $0x0,%ecx
  402115:	ba 70 37 40 00       	mov    $0x403770,%edx
  40211a:	be 01 00 00 00       	mov    $0x1,%esi
  40211f:	48 8b 3d ba 33 20 00 	mov    0x2033ba(%rip),%rdi        # 6054e0 <stderr@@GLIBC_2.2.5>
  402126:	b8 00 00 00 00       	mov    $0x0,%eax
  40212b:	e8 40 ed ff ff       	callq  400e70 <__fprintf_chk@plt>
  402130:	bf 01 00 00 00       	mov    $0x1,%edi
  402135:	e8 16 ed ff ff       	callq  400e50 <exit@plt>

000000000040213a <rio_writen>:
  40213a:	41 55                	push   %r13
  40213c:	41 54                	push   %r12
  40213e:	55                   	push   %rbp
  40213f:	53                   	push   %rbx
  402140:	48 83 ec 08          	sub    $0x8,%rsp
  402144:	41 89 fc             	mov    %edi,%r12d
  402147:	48 89 f5             	mov    %rsi,%rbp
  40214a:	49 89 d5             	mov    %rdx,%r13
  40214d:	48 89 d3             	mov    %rdx,%rbx
  402150:	eb 28                	jmp    40217a <rio_writen+0x40>
  402152:	48 89 da             	mov    %rbx,%rdx
  402155:	48 89 ee             	mov    %rbp,%rsi
  402158:	44 89 e7             	mov    %r12d,%edi
  40215b:	e8 80 eb ff ff       	callq  400ce0 <write@plt>
  402160:	48 85 c0             	test   %rax,%rax
  402163:	7f 0f                	jg     402174 <rio_writen+0x3a>
  402165:	e8 26 eb ff ff       	callq  400c90 <__errno_location@plt>
  40216a:	83 38 04             	cmpl   $0x4,(%rax)
  40216d:	75 15                	jne    402184 <rio_writen+0x4a>
  40216f:	b8 00 00 00 00       	mov    $0x0,%eax
  402174:	48 29 c3             	sub    %rax,%rbx
  402177:	48 01 c5             	add    %rax,%rbp
  40217a:	48 85 db             	test   %rbx,%rbx
  40217d:	75 d3                	jne    402152 <rio_writen+0x18>
  40217f:	4c 89 e8             	mov    %r13,%rax
  402182:	eb 07                	jmp    40218b <rio_writen+0x51>
  402184:	48 c7 c0 ff ff ff ff 	mov    $0xffffffffffffffff,%rax
  40218b:	48 83 c4 08          	add    $0x8,%rsp
  40218f:	5b                   	pop    %rbx
  402190:	5d                   	pop    %rbp
  402191:	41 5c                	pop    %r12
  402193:	41 5d                	pop    %r13
  402195:	c3                   	retq   

0000000000402196 <rio_read>:
  402196:	41 55                	push   %r13
  402198:	41 54                	push   %r12
  40219a:	55                   	push   %rbp
  40219b:	53                   	push   %rbx
  40219c:	48 83 ec 08          	sub    $0x8,%rsp
  4021a0:	48 89 fb             	mov    %rdi,%rbx
  4021a3:	49 89 f5             	mov    %rsi,%r13
  4021a6:	49 89 d4             	mov    %rdx,%r12
  4021a9:	eb 2e                	jmp    4021d9 <rio_read+0x43>
  4021ab:	48 8d 6b 10          	lea    0x10(%rbx),%rbp
  4021af:	8b 3b                	mov    (%rbx),%edi
  4021b1:	ba 00 20 00 00       	mov    $0x2000,%edx
  4021b6:	48 89 ee             	mov    %rbp,%rsi
  4021b9:	e8 82 eb ff ff       	callq  400d40 <read@plt>
  4021be:	89 43 04             	mov    %eax,0x4(%rbx)
  4021c1:	85 c0                	test   %eax,%eax
  4021c3:	79 0c                	jns    4021d1 <rio_read+0x3b>
  4021c5:	e8 c6 ea ff ff       	callq  400c90 <__errno_location@plt>
  4021ca:	83 38 04             	cmpl   $0x4,(%rax)
  4021cd:	74 0a                	je     4021d9 <rio_read+0x43>
  4021cf:	eb 37                	jmp    402208 <rio_read+0x72>
  4021d1:	85 c0                	test   %eax,%eax
  4021d3:	74 3c                	je     402211 <rio_read+0x7b>
  4021d5:	48 89 6b 08          	mov    %rbp,0x8(%rbx)
  4021d9:	8b 6b 04             	mov    0x4(%rbx),%ebp
  4021dc:	85 ed                	test   %ebp,%ebp
  4021de:	7e cb                	jle    4021ab <rio_read+0x15>
  4021e0:	89 e8                	mov    %ebp,%eax
  4021e2:	49 39 c4             	cmp    %rax,%r12
  4021e5:	77 03                	ja     4021ea <rio_read+0x54>
  4021e7:	44 89 e5             	mov    %r12d,%ebp
  4021ea:	4c 63 e5             	movslq %ebp,%r12
  4021ed:	48 8b 73 08          	mov    0x8(%rbx),%rsi
  4021f1:	4c 89 e2             	mov    %r12,%rdx
  4021f4:	4c 89 ef             	mov    %r13,%rdi
  4021f7:	e8 a4 eb ff ff       	callq  400da0 <memcpy@plt>
  4021fc:	4c 01 63 08          	add    %r12,0x8(%rbx)
  402200:	29 6b 04             	sub    %ebp,0x4(%rbx)
  402203:	4c 89 e0             	mov    %r12,%rax
  402206:	eb 0e                	jmp    402216 <rio_read+0x80>
  402208:	48 c7 c0 ff ff ff ff 	mov    $0xffffffffffffffff,%rax
  40220f:	eb 05                	jmp    402216 <rio_read+0x80>
  402211:	b8 00 00 00 00       	mov    $0x0,%eax
  402216:	48 83 c4 08          	add    $0x8,%rsp
  40221a:	5b                   	pop    %rbx
  40221b:	5d                   	pop    %rbp
  40221c:	41 5c                	pop    %r12
  40221e:	41 5d                	pop    %r13
  402220:	c3                   	retq   

0000000000402221 <rio_readlineb>:
  402221:	41 55                	push   %r13
  402223:	41 54                	push   %r12
  402225:	55                   	push   %rbp
  402226:	53                   	push   %rbx
  402227:	48 83 ec 18          	sub    $0x18,%rsp
  40222b:	49 89 fd             	mov    %rdi,%r13
  40222e:	48 89 f5             	mov    %rsi,%rbp
  402231:	49 89 d4             	mov    %rdx,%r12
  402234:	64 48 8b 04 25 28 00 	mov    %fs:0x28,%rax
  40223b:	00 00 
  40223d:	48 89 44 24 08       	mov    %rax,0x8(%rsp)
  402242:	31 c0                	xor    %eax,%eax
  402244:	bb 01 00 00 00       	mov    $0x1,%ebx
  402249:	eb 3f                	jmp    40228a <rio_readlineb+0x69>
  40224b:	ba 01 00 00 00       	mov    $0x1,%edx
  402250:	48 8d 74 24 07       	lea    0x7(%rsp),%rsi
  402255:	4c 89 ef             	mov    %r13,%rdi
  402258:	e8 39 ff ff ff       	callq  402196 <rio_read>
  40225d:	83 f8 01             	cmp    $0x1,%eax
  402260:	75 15                	jne    402277 <rio_readlineb+0x56>
  402262:	48 8d 45 01          	lea    0x1(%rbp),%rax
  402266:	0f b6 54 24 07       	movzbl 0x7(%rsp),%edx
  40226b:	88 55 00             	mov    %dl,0x0(%rbp)
  40226e:	80 7c 24 07 0a       	cmpb   $0xa,0x7(%rsp)
  402273:	75 0e                	jne    402283 <rio_readlineb+0x62>
  402275:	eb 1a                	jmp    402291 <rio_readlineb+0x70>
  402277:	85 c0                	test   %eax,%eax
  402279:	75 22                	jne    40229d <rio_readlineb+0x7c>
  40227b:	48 83 fb 01          	cmp    $0x1,%rbx
  40227f:	75 13                	jne    402294 <rio_readlineb+0x73>
  402281:	eb 23                	jmp    4022a6 <rio_readlineb+0x85>
  402283:	48 83 c3 01          	add    $0x1,%rbx
  402287:	48 89 c5             	mov    %rax,%rbp
  40228a:	4c 39 e3             	cmp    %r12,%rbx
  40228d:	72 bc                	jb     40224b <rio_readlineb+0x2a>
  40228f:	eb 03                	jmp    402294 <rio_readlineb+0x73>
  402291:	48 89 c5             	mov    %rax,%rbp
  402294:	c6 45 00 00          	movb   $0x0,0x0(%rbp)
  402298:	48 89 d8             	mov    %rbx,%rax
  40229b:	eb 0e                	jmp    4022ab <rio_readlineb+0x8a>
  40229d:	48 c7 c0 ff ff ff ff 	mov    $0xffffffffffffffff,%rax
  4022a4:	eb 05                	jmp    4022ab <rio_readlineb+0x8a>
  4022a6:	b8 00 00 00 00       	mov    $0x0,%eax
  4022ab:	48 8b 4c 24 08       	mov    0x8(%rsp),%rcx
  4022b0:	64 48 33 0c 25 28 00 	xor    %fs:0x28,%rcx
  4022b7:	00 00 
  4022b9:	74 05                	je     4022c0 <rio_readlineb+0x9f>
  4022bb:	e8 30 ea ff ff       	callq  400cf0 <__stack_chk_fail@plt>
  4022c0:	48 83 c4 18          	add    $0x18,%rsp
  4022c4:	5b                   	pop    %rbx
  4022c5:	5d                   	pop    %rbp
  4022c6:	41 5c                	pop    %r12
  4022c8:	41 5d                	pop    %r13
  4022ca:	c3                   	retq   

00000000004022cb <urlencode>:
  4022cb:	41 54                	push   %r12
  4022cd:	55                   	push   %rbp
  4022ce:	53                   	push   %rbx
  4022cf:	48 83 ec 10          	sub    $0x10,%rsp
  4022d3:	48 89 fb             	mov    %rdi,%rbx
  4022d6:	48 89 f5             	mov    %rsi,%rbp
  4022d9:	64 48 8b 04 25 28 00 	mov    %fs:0x28,%rax
  4022e0:	00 00 
  4022e2:	48 89 44 24 08       	mov    %rax,0x8(%rsp)
  4022e7:	31 c0                	xor    %eax,%eax
  4022e9:	48 c7 c1 ff ff ff ff 	mov    $0xffffffffffffffff,%rcx
  4022f0:	f2 ae                	repnz scas %es:(%rdi),%al
  4022f2:	48 f7 d1             	not    %rcx
  4022f5:	8d 41 ff             	lea    -0x1(%rcx),%eax
  4022f8:	e9 aa 00 00 00       	jmpq   4023a7 <urlencode+0xdc>
  4022fd:	44 0f b6 03          	movzbl (%rbx),%r8d
  402301:	41 80 f8 2a          	cmp    $0x2a,%r8b
  402305:	0f 94 c2             	sete   %dl
  402308:	41 80 f8 2d          	cmp    $0x2d,%r8b
  40230c:	0f 94 c0             	sete   %al
  40230f:	08 c2                	or     %al,%dl
  402311:	75 24                	jne    402337 <urlencode+0x6c>
  402313:	41 80 f8 2e          	cmp    $0x2e,%r8b
  402317:	74 1e                	je     402337 <urlencode+0x6c>
  402319:	41 80 f8 5f          	cmp    $0x5f,%r8b
  40231d:	74 18                	je     402337 <urlencode+0x6c>
  40231f:	41 8d 40 d0          	lea    -0x30(%r8),%eax
  402323:	3c 09                	cmp    $0x9,%al
  402325:	76 10                	jbe    402337 <urlencode+0x6c>
  402327:	41 8d 40 bf          	lea    -0x41(%r8),%eax
  40232b:	3c 19                	cmp    $0x19,%al
  40232d:	76 08                	jbe    402337 <urlencode+0x6c>
  40232f:	41 8d 40 9f          	lea    -0x61(%r8),%eax
  402333:	3c 19                	cmp    $0x19,%al
  402335:	77 0a                	ja     402341 <urlencode+0x76>
  402337:	44 88 45 00          	mov    %r8b,0x0(%rbp)
  40233b:	48 8d 6d 01          	lea    0x1(%rbp),%rbp
  40233f:	eb 5f                	jmp    4023a0 <urlencode+0xd5>
  402341:	41 80 f8 20          	cmp    $0x20,%r8b
  402345:	75 0a                	jne    402351 <urlencode+0x86>
  402347:	c6 45 00 2b          	movb   $0x2b,0x0(%rbp)
  40234b:	48 8d 6d 01          	lea    0x1(%rbp),%rbp
  40234f:	eb 4f                	jmp    4023a0 <urlencode+0xd5>
  402351:	41 8d 40 e0          	lea    -0x20(%r8),%eax
  402355:	3c 5f                	cmp    $0x5f,%al
  402357:	0f 96 c2             	setbe  %dl
  40235a:	41 80 f8 09          	cmp    $0x9,%r8b
  40235e:	0f 94 c0             	sete   %al
  402361:	08 c2                	or     %al,%dl
  402363:	74 50                	je     4023b5 <urlencode+0xea>
  402365:	45 0f b6 c0          	movzbl %r8b,%r8d
  402369:	b9 08 38 40 00       	mov    $0x403808,%ecx
  40236e:	ba 08 00 00 00       	mov    $0x8,%edx
  402373:	be 01 00 00 00       	mov    $0x1,%esi
  402378:	48 89 e7             	mov    %rsp,%rdi
  40237b:	b8 00 00 00 00       	mov    $0x0,%eax
  402380:	e8 fb ea ff ff       	callq  400e80 <__sprintf_chk@plt>
  402385:	0f b6 04 24          	movzbl (%rsp),%eax
  402389:	88 45 00             	mov    %al,0x0(%rbp)
  40238c:	0f b6 44 24 01       	movzbl 0x1(%rsp),%eax
  402391:	88 45 01             	mov    %al,0x1(%rbp)
  402394:	0f b6 44 24 02       	movzbl 0x2(%rsp),%eax
  402399:	88 45 02             	mov    %al,0x2(%rbp)
  40239c:	48 8d 6d 03          	lea    0x3(%rbp),%rbp
  4023a0:	48 83 c3 01          	add    $0x1,%rbx
  4023a4:	44 89 e0             	mov    %r12d,%eax
  4023a7:	44 8d 60 ff          	lea    -0x1(%rax),%r12d
  4023ab:	85 c0                	test   %eax,%eax
  4023ad:	0f 85 4a ff ff ff    	jne    4022fd <urlencode+0x32>
  4023b3:	eb 05                	jmp    4023ba <urlencode+0xef>
  4023b5:	b8 ff ff ff ff       	mov    $0xffffffff,%eax
  4023ba:	48 8b 74 24 08       	mov    0x8(%rsp),%rsi
  4023bf:	64 48 33 34 25 28 00 	xor    %fs:0x28,%rsi
  4023c6:	00 00 
  4023c8:	74 05                	je     4023cf <urlencode+0x104>
  4023ca:	e8 21 e9 ff ff       	callq  400cf0 <__stack_chk_fail@plt>
  4023cf:	48 83 c4 10          	add    $0x10,%rsp
  4023d3:	5b                   	pop    %rbx
  4023d4:	5d                   	pop    %rbp
  4023d5:	41 5c                	pop    %r12
  4023d7:	c3                   	retq   

00000000004023d8 <submitr>:
  4023d8:	41 57                	push   %r15
  4023da:	41 56                	push   %r14
  4023dc:	41 55                	push   %r13
  4023de:	41 54                	push   %r12
  4023e0:	55                   	push   %rbp
  4023e1:	53                   	push   %rbx
  4023e2:	48 81 ec 58 a0 00 00 	sub    $0xa058,%rsp
  4023e9:	49 89 fc             	mov    %rdi,%r12
  4023ec:	89 74 24 04          	mov    %esi,0x4(%rsp)
  4023f0:	49 89 d7             	mov    %rdx,%r15
  4023f3:	49 89 ce             	mov    %rcx,%r14
  4023f6:	4c 89 44 24 08       	mov    %r8,0x8(%rsp)
  4023fb:	4d 89 cd             	mov    %r9,%r13
  4023fe:	48 8b 9c 24 90 a0 00 	mov    0xa090(%rsp),%rbx
  402405:	00 
  402406:	64 48 8b 04 25 28 00 	mov    %fs:0x28,%rax
  40240d:	00 00 
  40240f:	48 89 84 24 48 a0 00 	mov    %rax,0xa048(%rsp)
  402416:	00 
  402417:	31 c0                	xor    %eax,%eax
  402419:	c7 44 24 1c 00 00 00 	movl   $0x0,0x1c(%rsp)
  402420:	00 
  402421:	ba 00 00 00 00       	mov    $0x0,%edx
  402426:	be 01 00 00 00       	mov    $0x1,%esi
  40242b:	bf 02 00 00 00       	mov    $0x2,%edi
  402430:	e8 5b ea ff ff       	callq  400e90 <socket@plt>
  402435:	85 c0                	test   %eax,%eax
  402437:	79 4e                	jns    402487 <submitr+0xaf>
  402439:	48 b8 45 72 72 6f 72 	movabs $0x43203a726f727245,%rax
  402440:	3a 20 43 
  402443:	48 89 03             	mov    %rax,(%rbx)
  402446:	48 b8 6c 69 65 6e 74 	movabs $0x6e7520746e65696c,%rax
  40244d:	20 75 6e 
  402450:	48 89 43 08          	mov    %rax,0x8(%rbx)
  402454:	48 b8 61 62 6c 65 20 	movabs $0x206f7420656c6261,%rax
  40245b:	74 6f 20 
  40245e:	48 89 43 10          	mov    %rax,0x10(%rbx)
  402462:	48 b8 63 72 65 61 74 	movabs $0x7320657461657263,%rax
  402469:	65 20 73 
  40246c:	48 89 43 18          	mov    %rax,0x18(%rbx)
  402470:	c7 43 20 6f 63 6b 65 	movl   $0x656b636f,0x20(%rbx)
  402477:	66 c7 43 24 74 00    	movw   $0x74,0x24(%rbx)
  40247d:	b8 ff ff ff ff       	mov    $0xffffffff,%eax
  402482:	e9 97 06 00 00       	jmpq   402b1e <submitr+0x746>
  402487:	89 c5                	mov    %eax,%ebp
  402489:	4c 89 e7             	mov    %r12,%rdi
  40248c:	e8 df e8 ff ff       	callq  400d70 <gethostbyname@plt>
  402491:	48 85 c0             	test   %rax,%rax
  402494:	75 67                	jne    4024fd <submitr+0x125>
  402496:	48 b8 45 72 72 6f 72 	movabs $0x44203a726f727245,%rax
  40249d:	3a 20 44 
  4024a0:	48 89 03             	mov    %rax,(%rbx)
  4024a3:	48 b8 4e 53 20 69 73 	movabs $0x6e7520736920534e,%rax
  4024aa:	20 75 6e 
  4024ad:	48 89 43 08          	mov    %rax,0x8(%rbx)
  4024b1:	48 b8 61 62 6c 65 20 	movabs $0x206f7420656c6261,%rax
  4024b8:	74 6f 20 
  4024bb:	48 89 43 10          	mov    %rax,0x10(%rbx)
  4024bf:	48 b8 72 65 73 6f 6c 	movabs $0x2065766c6f736572,%rax
  4024c6:	76 65 20 
  4024c9:	48 89 43 18          	mov    %rax,0x18(%rbx)
  4024cd:	48 b8 73 65 72 76 65 	movabs $0x6120726576726573,%rax
  4024d4:	72 20 61 
  4024d7:	48 89 43 20          	mov    %rax,0x20(%rbx)
  4024db:	c7 43 28 64 64 72 65 	movl   $0x65726464,0x28(%rbx)
  4024e2:	66 c7 43 2c 73 73    	movw   $0x7373,0x2c(%rbx)
  4024e8:	c6 43 2e 00          	movb   $0x0,0x2e(%rbx)
  4024ec:	89 ef                	mov    %ebp,%edi
  4024ee:	e8 3d e8 ff ff       	callq  400d30 <close@plt>
  4024f3:	b8 ff ff ff ff       	mov    $0xffffffff,%eax
  4024f8:	e9 21 06 00 00       	jmpq   402b1e <submitr+0x746>
  4024fd:	48 c7 44 24 20 00 00 	movq   $0x0,0x20(%rsp)
  402504:	00 00 
  402506:	48 c7 44 24 28 00 00 	movq   $0x0,0x28(%rsp)
  40250d:	00 00 
  40250f:	66 c7 44 24 20 02 00 	movw   $0x2,0x20(%rsp)
  402516:	48 63 50 14          	movslq 0x14(%rax),%rdx
  40251a:	48 8b 40 18          	mov    0x18(%rax),%rax
  40251e:	48 8b 30             	mov    (%rax),%rsi
  402521:	48 8d 7c 24 24       	lea    0x24(%rsp),%rdi
  402526:	b9 0c 00 00 00       	mov    $0xc,%ecx
  40252b:	e8 50 e8 ff ff       	callq  400d80 <__memmove_chk@plt>
  402530:	0f b7 44 24 04       	movzwl 0x4(%rsp),%eax
  402535:	66 c1 c8 08          	ror    $0x8,%ax
  402539:	66 89 44 24 22       	mov    %ax,0x22(%rsp)
  40253e:	ba 10 00 00 00       	mov    $0x10,%edx
  402543:	48 8d 74 24 20       	lea    0x20(%rsp),%rsi
  402548:	89 ef                	mov    %ebp,%edi
  40254a:	e8 11 e9 ff ff       	callq  400e60 <connect@plt>
  40254f:	85 c0                	test   %eax,%eax
  402551:	79 59                	jns    4025ac <submitr+0x1d4>
  402553:	48 b8 45 72 72 6f 72 	movabs $0x55203a726f727245,%rax
  40255a:	3a 20 55 
  40255d:	48 89 03             	mov    %rax,(%rbx)
  402560:	48 b8 6e 61 62 6c 65 	movabs $0x6f7420656c62616e,%rax
  402567:	20 74 6f 
  40256a:	48 89 43 08          	mov    %rax,0x8(%rbx)
  40256e:	48 b8 20 63 6f 6e 6e 	movabs $0x7463656e6e6f6320,%rax
  402575:	65 63 74 
  402578:	48 89 43 10          	mov    %rax,0x10(%rbx)
  40257c:	48 b8 20 74 6f 20 74 	movabs $0x20656874206f7420,%rax
  402583:	68 65 20 
  402586:	48 89 43 18          	mov    %rax,0x18(%rbx)
  40258a:	c7 43 20 73 65 72 76 	movl   $0x76726573,0x20(%rbx)
  402591:	66 c7 43 24 65 72    	movw   $0x7265,0x24(%rbx)
  402597:	c6 43 26 00          	movb   $0x0,0x26(%rbx)
  40259b:	89 ef                	mov    %ebp,%edi
  40259d:	e8 8e e7 ff ff       	callq  400d30 <close@plt>
  4025a2:	b8 ff ff ff ff       	mov    $0xffffffff,%eax
  4025a7:	e9 72 05 00 00       	jmpq   402b1e <submitr+0x746>
  4025ac:	48 c7 c6 ff ff ff ff 	mov    $0xffffffffffffffff,%rsi
  4025b3:	b8 00 00 00 00       	mov    $0x0,%eax
  4025b8:	48 89 f1             	mov    %rsi,%rcx
  4025bb:	4c 89 ef             	mov    %r13,%rdi
  4025be:	f2 ae                	repnz scas %es:(%rdi),%al
  4025c0:	48 f7 d1             	not    %rcx
  4025c3:	48 89 ca             	mov    %rcx,%rdx
  4025c6:	48 89 f1             	mov    %rsi,%rcx
  4025c9:	4c 89 ff             	mov    %r15,%rdi
  4025cc:	f2 ae                	repnz scas %es:(%rdi),%al
  4025ce:	48 f7 d1             	not    %rcx
  4025d1:	49 89 c8             	mov    %rcx,%r8
  4025d4:	48 89 f1             	mov    %rsi,%rcx
  4025d7:	4c 89 f7             	mov    %r14,%rdi
  4025da:	f2 ae                	repnz scas %es:(%rdi),%al
  4025dc:	48 f7 d1             	not    %rcx
  4025df:	4d 8d 44 08 fe       	lea    -0x2(%r8,%rcx,1),%r8
  4025e4:	48 89 f1             	mov    %rsi,%rcx
  4025e7:	48 8b 7c 24 08       	mov    0x8(%rsp),%rdi
  4025ec:	f2 ae                	repnz scas %es:(%rdi),%al
  4025ee:	48 89 c8             	mov    %rcx,%rax
  4025f1:	48 f7 d0             	not    %rax
  4025f4:	49 8d 4c 00 ff       	lea    -0x1(%r8,%rax,1),%rcx
  4025f9:	48 8d 44 52 fd       	lea    -0x3(%rdx,%rdx,2),%rax
  4025fe:	48 8d 84 01 80 00 00 	lea    0x80(%rcx,%rax,1),%rax
  402605:	00 
  402606:	48 3d 00 20 00 00    	cmp    $0x2000,%rax
  40260c:	76 72                	jbe    402680 <submitr+0x2a8>
  40260e:	48 b8 45 72 72 6f 72 	movabs $0x52203a726f727245,%rax
  402615:	3a 20 52 
  402618:	48 89 03             	mov    %rax,(%rbx)
  40261b:	48 b8 65 73 75 6c 74 	movabs $0x747320746c757365,%rax
  402622:	20 73 74 
  402625:	48 89 43 08          	mov    %rax,0x8(%rbx)
  402629:	48 b8 72 69 6e 67 20 	movabs $0x6f6f7420676e6972,%rax
  402630:	74 6f 6f 
  402633:	48 89 43 10          	mov    %rax,0x10(%rbx)
  402637:	48 b8 20 6c 61 72 67 	movabs $0x202e656772616c20,%rax
  40263e:	65 2e 20 
  402641:	48 89 43 18          	mov    %rax,0x18(%rbx)
  402645:	48 b8 49 6e 63 72 65 	movabs $0x6573616572636e49,%rax
  40264c:	61 73 65 
  40264f:	48 89 43 20          	mov    %rax,0x20(%rbx)
  402653:	48 b8 20 53 55 42 4d 	movabs $0x5254494d42555320,%rax
  40265a:	49 54 52 
  40265d:	48 89 43 28          	mov    %rax,0x28(%rbx)
  402661:	48 b8 5f 4d 41 58 42 	movabs $0x46554258414d5f,%rax
  402668:	55 46 00 
  40266b:	48 89 43 30          	mov    %rax,0x30(%rbx)
  40266f:	89 ef                	mov    %ebp,%edi
  402671:	e8 ba e6 ff ff       	callq  400d30 <close@plt>
  402676:	b8 ff ff ff ff       	mov    $0xffffffff,%eax
  40267b:	e9 9e 04 00 00       	jmpq   402b1e <submitr+0x746>
  402680:	48 8d b4 24 40 40 00 	lea    0x4040(%rsp),%rsi
  402687:	00 
  402688:	b9 00 04 00 00       	mov    $0x400,%ecx
  40268d:	b8 00 00 00 00       	mov    $0x0,%eax
  402692:	48 89 f7             	mov    %rsi,%rdi
  402695:	f3 48 ab             	rep stos %rax,%es:(%rdi)
  402698:	4c 89 ef             	mov    %r13,%rdi
  40269b:	e8 2b fc ff ff       	callq  4022cb <urlencode>
  4026a0:	85 c0                	test   %eax,%eax
  4026a2:	0f 89 8a 00 00 00    	jns    402732 <submitr+0x35a>
  4026a8:	48 b8 45 72 72 6f 72 	movabs $0x52203a726f727245,%rax
  4026af:	3a 20 52 
  4026b2:	48 89 03             	mov    %rax,(%rbx)
  4026b5:	48 b8 65 73 75 6c 74 	movabs $0x747320746c757365,%rax
  4026bc:	20 73 74 
  4026bf:	48 89 43 08          	mov    %rax,0x8(%rbx)
  4026c3:	48 b8 72 69 6e 67 20 	movabs $0x6e6f6320676e6972,%rax
  4026ca:	63 6f 6e 
  4026cd:	48 89 43 10          	mov    %rax,0x10(%rbx)
  4026d1:	48 b8 74 61 69 6e 73 	movabs $0x6e6120736e696174,%rax
  4026d8:	20 61 6e 
  4026db:	48 89 43 18          	mov    %rax,0x18(%rbx)
  4026df:	48 b8 20 69 6c 6c 65 	movabs $0x6c6167656c6c6920,%rax
  4026e6:	67 61 6c 
  4026e9:	48 89 43 20          	mov    %rax,0x20(%rbx)
  4026ed:	48 b8 20 6f 72 20 75 	movabs $0x72706e7520726f20,%rax
  4026f4:	6e 70 72 
  4026f7:	48 89 43 28          	mov    %rax,0x28(%rbx)
  4026fb:	48 b8 69 6e 74 61 62 	movabs $0x20656c6261746e69,%rax
  402702:	6c 65 20 
  402705:	48 89 43 30          	mov    %rax,0x30(%rbx)
  402709:	48 b8 63 68 61 72 61 	movabs $0x6574636172616863,%rax
  402710:	63 74 65 
  402713:	48 89 43 38          	mov    %rax,0x38(%rbx)
  402717:	66 c7 43 40 72 2e    	movw   $0x2e72,0x40(%rbx)
  40271d:	c6 43 42 00          	movb   $0x0,0x42(%rbx)
  402721:	89 ef                	mov    %ebp,%edi
  402723:	e8 08 e6 ff ff       	callq  400d30 <close@plt>
  402728:	b8 ff ff ff ff       	mov    $0xffffffff,%eax
  40272d:	e9 ec 03 00 00       	jmpq   402b1e <submitr+0x746>
  402732:	4c 8d ac 24 40 20 00 	lea    0x2040(%rsp),%r13
  402739:	00 
  40273a:	41 54                	push   %r12
  40273c:	48 8d 84 24 48 40 00 	lea    0x4048(%rsp),%rax
  402743:	00 
  402744:	50                   	push   %rax
  402745:	4d 89 f9             	mov    %r15,%r9
  402748:	4d 89 f0             	mov    %r14,%r8
  40274b:	b9 98 37 40 00       	mov    $0x403798,%ecx
  402750:	ba 00 20 00 00       	mov    $0x2000,%edx
  402755:	be 01 00 00 00       	mov    $0x1,%esi
  40275a:	4c 89 ef             	mov    %r13,%rdi
  40275d:	b8 00 00 00 00       	mov    $0x0,%eax
  402762:	e8 19 e7 ff ff       	callq  400e80 <__sprintf_chk@plt>
  402767:	b8 00 00 00 00       	mov    $0x0,%eax
  40276c:	48 c7 c1 ff ff ff ff 	mov    $0xffffffffffffffff,%rcx
  402773:	4c 89 ef             	mov    %r13,%rdi
  402776:	f2 ae                	repnz scas %es:(%rdi),%al
  402778:	48 f7 d1             	not    %rcx
  40277b:	48 8d 51 ff          	lea    -0x1(%rcx),%rdx
  40277f:	4c 89 ee             	mov    %r13,%rsi
  402782:	89 ef                	mov    %ebp,%edi
  402784:	e8 b1 f9 ff ff       	callq  40213a <rio_writen>
  402789:	48 83 c4 10          	add    $0x10,%rsp
  40278d:	48 85 c0             	test   %rax,%rax
  402790:	79 6e                	jns    402800 <submitr+0x428>
  402792:	48 b8 45 72 72 6f 72 	movabs $0x43203a726f727245,%rax
  402799:	3a 20 43 
  40279c:	48 89 03             	mov    %rax,(%rbx)
  40279f:	48 b8 6c 69 65 6e 74 	movabs $0x6e7520746e65696c,%rax
  4027a6:	20 75 6e 
  4027a9:	48 89 43 08          	mov    %rax,0x8(%rbx)
  4027ad:	48 b8 61 62 6c 65 20 	movabs $0x206f7420656c6261,%rax
  4027b4:	74 6f 20 
  4027b7:	48 89 43 10          	mov    %rax,0x10(%rbx)
  4027bb:	48 b8 77 72 69 74 65 	movabs $0x6f74206574697277,%rax
  4027c2:	20 74 6f 
  4027c5:	48 89 43 18          	mov    %rax,0x18(%rbx)
  4027c9:	48 b8 20 74 68 65 20 	movabs $0x7365722065687420,%rax
  4027d0:	72 65 73 
  4027d3:	48 89 43 20          	mov    %rax,0x20(%rbx)
  4027d7:	48 b8 75 6c 74 20 73 	movabs $0x7672657320746c75,%rax
  4027de:	65 72 76 
  4027e1:	48 89 43 28          	mov    %rax,0x28(%rbx)
  4027e5:	66 c7 43 30 65 72    	movw   $0x7265,0x30(%rbx)
  4027eb:	c6 43 32 00          	movb   $0x0,0x32(%rbx)
  4027ef:	89 ef                	mov    %ebp,%edi
  4027f1:	e8 3a e5 ff ff       	callq  400d30 <close@plt>
  4027f6:	b8 ff ff ff ff       	mov    $0xffffffff,%eax
  4027fb:	e9 1e 03 00 00       	jmpq   402b1e <submitr+0x746>
  402800:	89 ee                	mov    %ebp,%esi
  402802:	48 8d 7c 24 30       	lea    0x30(%rsp),%rdi
  402807:	e8 ee f8 ff ff       	callq  4020fa <rio_readinitb>
  40280c:	ba 00 20 00 00       	mov    $0x2000,%edx
  402811:	48 8d b4 24 40 20 00 	lea    0x2040(%rsp),%rsi
  402818:	00 
  402819:	48 8d 7c 24 30       	lea    0x30(%rsp),%rdi
  40281e:	e8 fe f9 ff ff       	callq  402221 <rio_readlineb>
  402823:	48 85 c0             	test   %rax,%rax
  402826:	7f 7d                	jg     4028a5 <submitr+0x4cd>
  402828:	48 b8 45 72 72 6f 72 	movabs $0x43203a726f727245,%rax
  40282f:	3a 20 43 
  402832:	48 89 03             	mov    %rax,(%rbx)
  402835:	48 b8 6c 69 65 6e 74 	movabs $0x6e7520746e65696c,%rax
  40283c:	20 75 6e 
  40283f:	48 89 43 08          	mov    %rax,0x8(%rbx)
  402843:	48 b8 61 62 6c 65 20 	movabs $0x206f7420656c6261,%rax
  40284a:	74 6f 20 
  40284d:	48 89 43 10          	mov    %rax,0x10(%rbx)
  402851:	48 b8 72 65 61 64 20 	movabs $0x7269662064616572,%rax
  402858:	66 69 72 
  40285b:	48 89 43 18          	mov    %rax,0x18(%rbx)
  40285f:	48 b8 73 74 20 68 65 	movabs $0x6564616568207473,%rax
  402866:	61 64 65 
  402869:	48 89 43 20          	mov    %rax,0x20(%rbx)
  40286d:	48 b8 72 20 66 72 6f 	movabs $0x72206d6f72662072,%rax
  402874:	6d 20 72 
  402877:	48 89 43 28          	mov    %rax,0x28(%rbx)
  40287b:	48 b8 65 73 75 6c 74 	movabs $0x657320746c757365,%rax
  402882:	20 73 65 
  402885:	48 89 43 30          	mov    %rax,0x30(%rbx)
  402889:	c7 43 38 72 76 65 72 	movl   $0x72657672,0x38(%rbx)
  402890:	c6 43 3c 00          	movb   $0x0,0x3c(%rbx)
  402894:	89 ef                	mov    %ebp,%edi
  402896:	e8 95 e4 ff ff       	callq  400d30 <close@plt>
  40289b:	b8 ff ff ff ff       	mov    $0xffffffff,%eax
  4028a0:	e9 79 02 00 00       	jmpq   402b1e <submitr+0x746>
  4028a5:	4c 8d 84 24 40 80 00 	lea    0x8040(%rsp),%r8
  4028ac:	00 
  4028ad:	48 8d 4c 24 1c       	lea    0x1c(%rsp),%rcx
  4028b2:	48 8d 94 24 40 60 00 	lea    0x6040(%rsp),%rdx
  4028b9:	00 
  4028ba:	be 0f 38 40 00       	mov    $0x40380f,%esi
  4028bf:	48 8d bc 24 40 20 00 	lea    0x2040(%rsp),%rdi
  4028c6:	00 
  4028c7:	b8 00 00 00 00       	mov    $0x0,%eax
  4028cc:	e8 0f e5 ff ff       	callq  400de0 <__isoc99_sscanf@plt>
  4028d1:	e9 95 00 00 00       	jmpq   40296b <submitr+0x593>
  4028d6:	ba 00 20 00 00       	mov    $0x2000,%edx
  4028db:	48 8d b4 24 40 20 00 	lea    0x2040(%rsp),%rsi
  4028e2:	00 
  4028e3:	48 8d 7c 24 30       	lea    0x30(%rsp),%rdi
  4028e8:	e8 34 f9 ff ff       	callq  402221 <rio_readlineb>
  4028ed:	48 85 c0             	test   %rax,%rax
  4028f0:	7f 79                	jg     40296b <submitr+0x593>
  4028f2:	48 b8 45 72 72 6f 72 	movabs $0x43203a726f727245,%rax
  4028f9:	3a 20 43 
  4028fc:	48 89 03             	mov    %rax,(%rbx)
  4028ff:	48 b8 6c 69 65 6e 74 	movabs $0x6e7520746e65696c,%rax
  402906:	20 75 6e 
  402909:	48 89 43 08          	mov    %rax,0x8(%rbx)
  40290d:	48 b8 61 62 6c 65 20 	movabs $0x206f7420656c6261,%rax
  402914:	74 6f 20 
  402917:	48 89 43 10          	mov    %rax,0x10(%rbx)
  40291b:	48 b8 72 65 61 64 20 	movabs $0x6165682064616572,%rax
  402922:	68 65 61 
  402925:	48 89 43 18          	mov    %rax,0x18(%rbx)
  402929:	48 b8 64 65 72 73 20 	movabs $0x6f72662073726564,%rax
  402930:	66 72 6f 
  402933:	48 89 43 20          	mov    %rax,0x20(%rbx)
  402937:	48 b8 6d 20 74 68 65 	movabs $0x657220656874206d,%rax
  40293e:	20 72 65 
  402941:	48 89 43 28          	mov    %rax,0x28(%rbx)
  402945:	48 b8 73 75 6c 74 20 	movabs $0x72657320746c7573,%rax
  40294c:	73 65 72 
  40294f:	48 89 43 30          	mov    %rax,0x30(%rbx)
  402953:	c7 43 38 76 65 72 00 	movl   $0x726576,0x38(%rbx)
  40295a:	89 ef                	mov    %ebp,%edi
  40295c:	e8 cf e3 ff ff       	callq  400d30 <close@plt>
  402961:	b8 ff ff ff ff       	mov    $0xffffffff,%eax
  402966:	e9 b3 01 00 00       	jmpq   402b1e <submitr+0x746>
  40296b:	0f b6 94 24 40 20 00 	movzbl 0x2040(%rsp),%edx
  402972:	00 
  402973:	b8 0d 00 00 00       	mov    $0xd,%eax
  402978:	29 d0                	sub    %edx,%eax
  40297a:	75 1b                	jne    402997 <submitr+0x5bf>
  40297c:	0f b6 94 24 41 20 00 	movzbl 0x2041(%rsp),%edx
  402983:	00 
  402984:	b8 0a 00 00 00       	mov    $0xa,%eax
  402989:	29 d0                	sub    %edx,%eax
  40298b:	75 0a                	jne    402997 <submitr+0x5bf>
  40298d:	0f b6 84 24 42 20 00 	movzbl 0x2042(%rsp),%eax
  402994:	00 
  402995:	f7 d8                	neg    %eax
  402997:	85 c0                	test   %eax,%eax
  402999:	0f 85 37 ff ff ff    	jne    4028d6 <submitr+0x4fe>
  40299f:	ba 00 20 00 00       	mov    $0x2000,%edx
  4029a4:	48 8d b4 24 40 20 00 	lea    0x2040(%rsp),%rsi
  4029ab:	00 
  4029ac:	48 8d 7c 24 30       	lea    0x30(%rsp),%rdi
  4029b1:	e8 6b f8 ff ff       	callq  402221 <rio_readlineb>
  4029b6:	48 85 c0             	test   %rax,%rax
  4029b9:	0f 8f 83 00 00 00    	jg     402a42 <submitr+0x66a>
  4029bf:	48 b8 45 72 72 6f 72 	movabs $0x43203a726f727245,%rax
  4029c6:	3a 20 43 
  4029c9:	48 89 03             	mov    %rax,(%rbx)
  4029cc:	48 b8 6c 69 65 6e 74 	movabs $0x6e7520746e65696c,%rax
  4029d3:	20 75 6e 
  4029d6:	48 89 43 08          	mov    %rax,0x8(%rbx)
  4029da:	48 b8 61 62 6c 65 20 	movabs $0x206f7420656c6261,%rax
  4029e1:	74 6f 20 
  4029e4:	48 89 43 10          	mov    %rax,0x10(%rbx)
  4029e8:	48 b8 72 65 61 64 20 	movabs $0x6174732064616572,%rax
  4029ef:	73 74 61 
  4029f2:	48 89 43 18          	mov    %rax,0x18(%rbx)
  4029f6:	48 b8 74 75 73 20 6d 	movabs $0x7373656d20737574,%rax
  4029fd:	65 73 73 
  402a00:	48 89 43 20          	mov    %rax,0x20(%rbx)
  402a04:	48 b8 61 67 65 20 66 	movabs $0x6d6f726620656761,%rax
  402a0b:	72 6f 6d 
  402a0e:	48 89 43 28          	mov    %rax,0x28(%rbx)
  402a12:	48 b8 20 72 65 73 75 	movabs $0x20746c7573657220,%rax
  402a19:	6c 74 20 
  402a1c:	48 89 43 30          	mov    %rax,0x30(%rbx)
  402a20:	c7 43 38 73 65 72 76 	movl   $0x76726573,0x38(%rbx)
  402a27:	66 c7 43 3c 65 72    	movw   $0x7265,0x3c(%rbx)
  402a2d:	c6 43 3e 00          	movb   $0x0,0x3e(%rbx)
  402a31:	89 ef                	mov    %ebp,%edi
  402a33:	e8 f8 e2 ff ff       	callq  400d30 <close@plt>
  402a38:	b8 ff ff ff ff       	mov    $0xffffffff,%eax
  402a3d:	e9 dc 00 00 00       	jmpq   402b1e <submitr+0x746>
  402a42:	44 8b 44 24 1c       	mov    0x1c(%rsp),%r8d
  402a47:	41 81 f8 c8 00 00 00 	cmp    $0xc8,%r8d
  402a4e:	74 37                	je     402a87 <submitr+0x6af>
  402a50:	4c 8d 8c 24 40 80 00 	lea    0x8040(%rsp),%r9
  402a57:	00 
  402a58:	b9 d8 37 40 00       	mov    $0x4037d8,%ecx
  402a5d:	48 c7 c2 ff ff ff ff 	mov    $0xffffffffffffffff,%rdx
  402a64:	be 01 00 00 00       	mov    $0x1,%esi
  402a69:	48 89 df             	mov    %rbx,%rdi
  402a6c:	b8 00 00 00 00       	mov    $0x0,%eax
  402a71:	e8 0a e4 ff ff       	callq  400e80 <__sprintf_chk@plt>
  402a76:	89 ef                	mov    %ebp,%edi
  402a78:	e8 b3 e2 ff ff       	callq  400d30 <close@plt>
  402a7d:	b8 ff ff ff ff       	mov    $0xffffffff,%eax
  402a82:	e9 97 00 00 00       	jmpq   402b1e <submitr+0x746>
  402a87:	48 8d b4 24 40 20 00 	lea    0x2040(%rsp),%rsi
  402a8e:	00 
  402a8f:	48 89 df             	mov    %rbx,%rdi
  402a92:	e8 29 e2 ff ff       	callq  400cc0 <strcpy@plt>
  402a97:	89 ef                	mov    %ebp,%edi
  402a99:	e8 92 e2 ff ff       	callq  400d30 <close@plt>
  402a9e:	0f b6 03             	movzbl (%rbx),%eax
  402aa1:	ba 4f 00 00 00       	mov    $0x4f,%edx
  402aa6:	29 c2                	sub    %eax,%edx
  402aa8:	75 22                	jne    402acc <submitr+0x6f4>
  402aaa:	0f b6 4b 01          	movzbl 0x1(%rbx),%ecx
  402aae:	b8 4b 00 00 00       	mov    $0x4b,%eax
  402ab3:	29 c8                	sub    %ecx,%eax
  402ab5:	75 17                	jne    402ace <submitr+0x6f6>
  402ab7:	0f b6 4b 02          	movzbl 0x2(%rbx),%ecx
  402abb:	b8 0a 00 00 00       	mov    $0xa,%eax
  402ac0:	29 c8                	sub    %ecx,%eax
  402ac2:	75 0a                	jne    402ace <submitr+0x6f6>
  402ac4:	0f b6 43 03          	movzbl 0x3(%rbx),%eax
  402ac8:	f7 d8                	neg    %eax
  402aca:	eb 02                	jmp    402ace <submitr+0x6f6>
  402acc:	89 d0                	mov    %edx,%eax
  402ace:	85 c0                	test   %eax,%eax
  402ad0:	74 40                	je     402b12 <submitr+0x73a>
  402ad2:	bf 20 38 40 00       	mov    $0x403820,%edi
  402ad7:	b9 05 00 00 00       	mov    $0x5,%ecx
  402adc:	48 89 de             	mov    %rbx,%rsi
  402adf:	f3 a6                	repz cmpsb %es:(%rdi),%ds:(%rsi)
  402ae1:	0f 97 c0             	seta   %al
  402ae4:	0f 92 c1             	setb   %cl
  402ae7:	29 c8                	sub    %ecx,%eax
  402ae9:	0f be c0             	movsbl %al,%eax
  402aec:	85 c0                	test   %eax,%eax
  402aee:	74 2e                	je     402b1e <submitr+0x746>
  402af0:	85 d2                	test   %edx,%edx
  402af2:	75 13                	jne    402b07 <submitr+0x72f>
  402af4:	0f b6 43 01          	movzbl 0x1(%rbx),%eax
  402af8:	ba 4b 00 00 00       	mov    $0x4b,%edx
  402afd:	29 c2                	sub    %eax,%edx
  402aff:	75 06                	jne    402b07 <submitr+0x72f>
  402b01:	0f b6 53 02          	movzbl 0x2(%rbx),%edx
  402b05:	f7 da                	neg    %edx
  402b07:	85 d2                	test   %edx,%edx
  402b09:	75 0e                	jne    402b19 <submitr+0x741>
  402b0b:	b8 00 00 00 00       	mov    $0x0,%eax
  402b10:	eb 0c                	jmp    402b1e <submitr+0x746>
  402b12:	b8 00 00 00 00       	mov    $0x0,%eax
  402b17:	eb 05                	jmp    402b1e <submitr+0x746>
  402b19:	b8 ff ff ff ff       	mov    $0xffffffff,%eax
  402b1e:	48 8b 9c 24 48 a0 00 	mov    0xa048(%rsp),%rbx
  402b25:	00 
  402b26:	64 48 33 1c 25 28 00 	xor    %fs:0x28,%rbx
  402b2d:	00 00 
  402b2f:	74 05                	je     402b36 <submitr+0x75e>
  402b31:	e8 ba e1 ff ff       	callq  400cf0 <__stack_chk_fail@plt>
  402b36:	48 81 c4 58 a0 00 00 	add    $0xa058,%rsp
  402b3d:	5b                   	pop    %rbx
  402b3e:	5d                   	pop    %rbp
  402b3f:	41 5c                	pop    %r12
  402b41:	41 5d                	pop    %r13
  402b43:	41 5e                	pop    %r14
  402b45:	41 5f                	pop    %r15
  402b47:	c3                   	retq   

0000000000402b48 <init_timeout>:
  402b48:	85 ff                	test   %edi,%edi
  402b4a:	74 23                	je     402b6f <init_timeout+0x27>
  402b4c:	53                   	push   %rbx
  402b4d:	89 fb                	mov    %edi,%ebx
  402b4f:	85 ff                	test   %edi,%edi
  402b51:	79 05                	jns    402b58 <init_timeout+0x10>
  402b53:	bb 00 00 00 00       	mov    $0x0,%ebx
  402b58:	be 0c 21 40 00       	mov    $0x40210c,%esi
  402b5d:	bf 0e 00 00 00       	mov    $0xe,%edi
  402b62:	e8 f9 e1 ff ff       	callq  400d60 <signal@plt>
  402b67:	89 df                	mov    %ebx,%edi
  402b69:	e8 b2 e1 ff ff       	callq  400d20 <alarm@plt>
  402b6e:	5b                   	pop    %rbx
  402b6f:	f3 c3                	repz retq 

0000000000402b71 <init_driver>:
  402b71:	55                   	push   %rbp
  402b72:	53                   	push   %rbx
  402b73:	48 83 ec 28          	sub    $0x28,%rsp
  402b77:	48 89 fd             	mov    %rdi,%rbp
  402b7a:	64 48 8b 04 25 28 00 	mov    %fs:0x28,%rax
  402b81:	00 00 
  402b83:	48 89 44 24 18       	mov    %rax,0x18(%rsp)
  402b88:	31 c0                	xor    %eax,%eax
  402b8a:	be 01 00 00 00       	mov    $0x1,%esi
  402b8f:	bf 0d 00 00 00       	mov    $0xd,%edi
  402b94:	e8 c7 e1 ff ff       	callq  400d60 <signal@plt>
  402b99:	be 01 00 00 00       	mov    $0x1,%esi
  402b9e:	bf 1d 00 00 00       	mov    $0x1d,%edi
  402ba3:	e8 b8 e1 ff ff       	callq  400d60 <signal@plt>
  402ba8:	be 01 00 00 00       	mov    $0x1,%esi
  402bad:	bf 1d 00 00 00       	mov    $0x1d,%edi
  402bb2:	e8 a9 e1 ff ff       	callq  400d60 <signal@plt>
  402bb7:	ba 00 00 00 00       	mov    $0x0,%edx
  402bbc:	be 01 00 00 00       	mov    $0x1,%esi
  402bc1:	bf 02 00 00 00       	mov    $0x2,%edi
  402bc6:	e8 c5 e2 ff ff       	callq  400e90 <socket@plt>
  402bcb:	85 c0                	test   %eax,%eax
  402bcd:	79 4f                	jns    402c1e <init_driver+0xad>
  402bcf:	48 b8 45 72 72 6f 72 	movabs $0x43203a726f727245,%rax
  402bd6:	3a 20 43 
  402bd9:	48 89 45 00          	mov    %rax,0x0(%rbp)
  402bdd:	48 b8 6c 69 65 6e 74 	movabs $0x6e7520746e65696c,%rax
  402be4:	20 75 6e 
  402be7:	48 89 45 08          	mov    %rax,0x8(%rbp)
  402beb:	48 b8 61 62 6c 65 20 	movabs $0x206f7420656c6261,%rax
  402bf2:	74 6f 20 
  402bf5:	48 89 45 10          	mov    %rax,0x10(%rbp)
  402bf9:	48 b8 63 72 65 61 74 	movabs $0x7320657461657263,%rax
  402c00:	65 20 73 
  402c03:	48 89 45 18          	mov    %rax,0x18(%rbp)
  402c07:	c7 45 20 6f 63 6b 65 	movl   $0x656b636f,0x20(%rbp)
  402c0e:	66 c7 45 24 74 00    	movw   $0x74,0x24(%rbp)
  402c14:	b8 ff ff ff ff       	mov    $0xffffffff,%eax
  402c19:	e9 2a 01 00 00       	jmpq   402d48 <init_driver+0x1d7>
  402c1e:	89 c3                	mov    %eax,%ebx
  402c20:	bf 25 38 40 00       	mov    $0x403825,%edi
  402c25:	e8 46 e1 ff ff       	callq  400d70 <gethostbyname@plt>
  402c2a:	48 85 c0             	test   %rax,%rax
  402c2d:	75 68                	jne    402c97 <init_driver+0x126>
  402c2f:	48 b8 45 72 72 6f 72 	movabs $0x44203a726f727245,%rax
  402c36:	3a 20 44 
  402c39:	48 89 45 00          	mov    %rax,0x0(%rbp)
  402c3d:	48 b8 4e 53 20 69 73 	movabs $0x6e7520736920534e,%rax
  402c44:	20 75 6e 
  402c47:	48 89 45 08          	mov    %rax,0x8(%rbp)
  402c4b:	48 b8 61 62 6c 65 20 	movabs $0x206f7420656c6261,%rax
  402c52:	74 6f 20 
  402c55:	48 89 45 10          	mov    %rax,0x10(%rbp)
  402c59:	48 b8 72 65 73 6f 6c 	movabs $0x2065766c6f736572,%rax
  402c60:	76 65 20 
  402c63:	48 89 45 18          	mov    %rax,0x18(%rbp)
  402c67:	48 b8 73 65 72 76 65 	movabs $0x6120726576726573,%rax
  402c6e:	72 20 61 
  402c71:	48 89 45 20          	mov    %rax,0x20(%rbp)
  402c75:	c7 45 28 64 64 72 65 	movl   $0x65726464,0x28(%rbp)
  402c7c:	66 c7 45 2c 73 73    	movw   $0x7373,0x2c(%rbp)
  402c82:	c6 45 2e 00          	movb   $0x0,0x2e(%rbp)
  402c86:	89 df                	mov    %ebx,%edi
  402c88:	e8 a3 e0 ff ff       	callq  400d30 <close@plt>
  402c8d:	b8 ff ff ff ff       	mov    $0xffffffff,%eax
  402c92:	e9 b1 00 00 00       	jmpq   402d48 <init_driver+0x1d7>
  402c97:	48 c7 04 24 00 00 00 	movq   $0x0,(%rsp)
  402c9e:	00 
  402c9f:	48 c7 44 24 08 00 00 	movq   $0x0,0x8(%rsp)
  402ca6:	00 00 
  402ca8:	66 c7 04 24 02 00    	movw   $0x2,(%rsp)
  402cae:	48 63 50 14          	movslq 0x14(%rax),%rdx
  402cb2:	48 8b 40 18          	mov    0x18(%rax),%rax
  402cb6:	48 8b 30             	mov    (%rax),%rsi
  402cb9:	48 8d 7c 24 04       	lea    0x4(%rsp),%rdi
  402cbe:	b9 0c 00 00 00       	mov    $0xc,%ecx
  402cc3:	e8 b8 e0 ff ff       	callq  400d80 <__memmove_chk@plt>
  402cc8:	66 c7 44 24 02 3c 9a 	movw   $0x9a3c,0x2(%rsp)
  402ccf:	ba 10 00 00 00       	mov    $0x10,%edx
  402cd4:	48 89 e6             	mov    %rsp,%rsi
  402cd7:	89 df                	mov    %ebx,%edi
  402cd9:	e8 82 e1 ff ff       	callq  400e60 <connect@plt>
  402cde:	85 c0                	test   %eax,%eax
  402ce0:	79 50                	jns    402d32 <init_driver+0x1c1>
  402ce2:	48 b8 45 72 72 6f 72 	movabs $0x55203a726f727245,%rax
  402ce9:	3a 20 55 
  402cec:	48 89 45 00          	mov    %rax,0x0(%rbp)
  402cf0:	48 b8 6e 61 62 6c 65 	movabs $0x6f7420656c62616e,%rax
  402cf7:	20 74 6f 
  402cfa:	48 89 45 08          	mov    %rax,0x8(%rbp)
  402cfe:	48 b8 20 63 6f 6e 6e 	movabs $0x7463656e6e6f6320,%rax
  402d05:	65 63 74 
  402d08:	48 89 45 10          	mov    %rax,0x10(%rbp)
  402d0c:	48 b8 20 74 6f 20 73 	movabs $0x76726573206f7420,%rax
  402d13:	65 72 76 
  402d16:	48 89 45 18          	mov    %rax,0x18(%rbp)
  402d1a:	66 c7 45 20 65 72    	movw   $0x7265,0x20(%rbp)
  402d20:	c6 45 22 00          	movb   $0x0,0x22(%rbp)
  402d24:	89 df                	mov    %ebx,%edi
  402d26:	e8 05 e0 ff ff       	callq  400d30 <close@plt>
  402d2b:	b8 ff ff ff ff       	mov    $0xffffffff,%eax
  402d30:	eb 16                	jmp    402d48 <init_driver+0x1d7>
  402d32:	89 df                	mov    %ebx,%edi
  402d34:	e8 f7 df ff ff       	callq  400d30 <close@plt>
  402d39:	66 c7 45 00 4f 4b    	movw   $0x4b4f,0x0(%rbp)
  402d3f:	c6 45 02 00          	movb   $0x0,0x2(%rbp)
  402d43:	b8 00 00 00 00       	mov    $0x0,%eax
  402d48:	48 8b 4c 24 18       	mov    0x18(%rsp),%rcx
  402d4d:	64 48 33 0c 25 28 00 	xor    %fs:0x28,%rcx
  402d54:	00 00 
  402d56:	74 05                	je     402d5d <init_driver+0x1ec>
  402d58:	e8 93 df ff ff       	callq  400cf0 <__stack_chk_fail@plt>
  402d5d:	48 83 c4 28          	add    $0x28,%rsp
  402d61:	5b                   	pop    %rbx
  402d62:	5d                   	pop    %rbp
  402d63:	c3                   	retq   

0000000000402d64 <driver_post>:
  402d64:	53                   	push   %rbx
  402d65:	4c 89 cb             	mov    %r9,%rbx
  402d68:	45 85 c0             	test   %r8d,%r8d
  402d6b:	74 27                	je     402d94 <driver_post+0x30>
  402d6d:	48 89 ca             	mov    %rcx,%rdx
  402d70:	be 3a 38 40 00       	mov    $0x40383a,%esi
  402d75:	bf 01 00 00 00       	mov    $0x1,%edi
  402d7a:	b8 00 00 00 00       	mov    $0x0,%eax
  402d7f:	e8 7c e0 ff ff       	callq  400e00 <__printf_chk@plt>
  402d84:	66 c7 03 4f 4b       	movw   $0x4b4f,(%rbx)
  402d89:	c6 43 02 00          	movb   $0x0,0x2(%rbx)
  402d8d:	b8 00 00 00 00       	mov    $0x0,%eax
  402d92:	eb 3f                	jmp    402dd3 <driver_post+0x6f>
  402d94:	48 85 ff             	test   %rdi,%rdi
  402d97:	74 2c                	je     402dc5 <driver_post+0x61>
  402d99:	80 3f 00             	cmpb   $0x0,(%rdi)
  402d9c:	74 27                	je     402dc5 <driver_post+0x61>
  402d9e:	48 83 ec 08          	sub    $0x8,%rsp
  402da2:	41 51                	push   %r9
  402da4:	49 89 c9             	mov    %rcx,%r9
  402da7:	49 89 d0             	mov    %rdx,%r8
  402daa:	48 89 f9             	mov    %rdi,%rcx
  402dad:	48 89 f2             	mov    %rsi,%rdx
  402db0:	be 9a 3c 00 00       	mov    $0x3c9a,%esi
  402db5:	bf 25 38 40 00       	mov    $0x403825,%edi
  402dba:	e8 19 f6 ff ff       	callq  4023d8 <submitr>
  402dbf:	48 83 c4 10          	add    $0x10,%rsp
  402dc3:	eb 0e                	jmp    402dd3 <driver_post+0x6f>
  402dc5:	66 c7 03 4f 4b       	movw   $0x4b4f,(%rbx)
  402dca:	c6 43 02 00          	movb   $0x0,0x2(%rbx)
  402dce:	b8 00 00 00 00       	mov    $0x0,%eax
  402dd3:	5b                   	pop    %rbx
  402dd4:	c3                   	retq   

0000000000402dd5 <check>:
  402dd5:	89 f8                	mov    %edi,%eax
  402dd7:	c1 e8 1c             	shr    $0x1c,%eax
  402dda:	85 c0                	test   %eax,%eax
  402ddc:	74 1d                	je     402dfb <check+0x26>
  402dde:	b9 00 00 00 00       	mov    $0x0,%ecx
  402de3:	eb 0b                	jmp    402df0 <check+0x1b>
  402de5:	89 f8                	mov    %edi,%eax
  402de7:	d3 e8                	shr    %cl,%eax
  402de9:	3c 0a                	cmp    $0xa,%al
  402deb:	74 14                	je     402e01 <check+0x2c>
  402ded:	83 c1 08             	add    $0x8,%ecx
  402df0:	83 f9 1f             	cmp    $0x1f,%ecx
  402df3:	7e f0                	jle    402de5 <check+0x10>
  402df5:	b8 01 00 00 00       	mov    $0x1,%eax
  402dfa:	c3                   	retq   
  402dfb:	b8 00 00 00 00       	mov    $0x0,%eax
  402e00:	c3                   	retq   
  402e01:	b8 00 00 00 00       	mov    $0x0,%eax
  402e06:	c3                   	retq   

0000000000402e07 <gencookie>:
  402e07:	53                   	push   %rbx
  402e08:	83 c7 01             	add    $0x1,%edi
  402e0b:	e8 90 de ff ff       	callq  400ca0 <srandom@plt>
  402e10:	e8 ab df ff ff       	callq  400dc0 <random@plt>
  402e15:	89 c3                	mov    %eax,%ebx
  402e17:	89 c7                	mov    %eax,%edi
  402e19:	e8 b7 ff ff ff       	callq  402dd5 <check>
  402e1e:	85 c0                	test   %eax,%eax
  402e20:	74 ee                	je     402e10 <gencookie+0x9>
  402e22:	89 d8                	mov    %ebx,%eax
  402e24:	5b                   	pop    %rbx
  402e25:	c3                   	retq   
  402e26:	66 2e 0f 1f 84 00 00 	nopw   %cs:0x0(%rax,%rax,1)
  402e2d:	00 00 00 

0000000000402e30 <__libc_csu_init>:
  402e30:	41 57                	push   %r15
  402e32:	41 56                	push   %r14
  402e34:	41 89 ff             	mov    %edi,%r15d
  402e37:	41 55                	push   %r13
  402e39:	41 54                	push   %r12
  402e3b:	4c 8d 25 ce 1f 20 00 	lea    0x201fce(%rip),%r12        # 604e10 <__frame_dummy_init_array_entry>
  402e42:	55                   	push   %rbp
  402e43:	48 8d 2d ce 1f 20 00 	lea    0x201fce(%rip),%rbp        # 604e18 <__do_global_dtors_aux_fini_array_entry>
  402e4a:	53                   	push   %rbx
  402e4b:	49 89 f6             	mov    %rsi,%r14
  402e4e:	49 89 d5             	mov    %rdx,%r13
  402e51:	4c 29 e5             	sub    %r12,%rbp
  402e54:	48 83 ec 08          	sub    $0x8,%rsp
  402e58:	48 c1 fd 03          	sar    $0x3,%rbp
  402e5c:	e8 e7 dd ff ff       	callq  400c48 <_init>
  402e61:	48 85 ed             	test   %rbp,%rbp
  402e64:	74 20                	je     402e86 <__libc_csu_init+0x56>
  402e66:	31 db                	xor    %ebx,%ebx
  402e68:	0f 1f 84 00 00 00 00 	nopl   0x0(%rax,%rax,1)
  402e6f:	00 
  402e70:	4c 89 ea             	mov    %r13,%rdx
  402e73:	4c 89 f6             	mov    %r14,%rsi
  402e76:	44 89 ff             	mov    %r15d,%edi
  402e79:	41 ff 14 dc          	callq  *(%r12,%rbx,8)
  402e7d:	48 83 c3 01          	add    $0x1,%rbx
  402e81:	48 39 eb             	cmp    %rbp,%rbx
  402e84:	75 ea                	jne    402e70 <__libc_csu_init+0x40>
  402e86:	48 83 c4 08          	add    $0x8,%rsp
  402e8a:	5b                   	pop    %rbx
  402e8b:	5d                   	pop    %rbp
  402e8c:	41 5c                	pop    %r12
  402e8e:	41 5d                	pop    %r13
  402e90:	41 5e                	pop    %r14
  402e92:	41 5f                	pop    %r15
  402e94:	c3                   	retq   
  402e95:	90                   	nop
  402e96:	66 2e 0f 1f 84 00 00 	nopw   %cs:0x0(%rax,%rax,1)
  402e9d:	00 00 00 

0000000000402ea0 <__libc_csu_fini>:
  402ea0:	f3 c3                	repz retq 

Disassembly of section .fini:

0000000000402ea4 <_fini>:
  402ea4:	48 83 ec 08          	sub    $0x8,%rsp
  402ea8:	48 83 c4 08          	add    $0x8,%rsp
  402eac:	c3                   	retq   
