
rtarget:     file format elf64-x86-64


Disassembly of section .init:

0000000000400c48 <_init>:
  400c48:	48 83 ec 08          	sub    $0x8,%rsp
  400c4c:	48 8b 05 a5 43 20 00 	mov    0x2043a5(%rip),%rax        # 604ff8 <__gmon_start__>
  400c53:	48 85 c0             	test   %rax,%rax
  400c56:	74 05                	je     400c5d <_init+0x15>
  400c58:	e8 43 02 00 00       	callq  400ea0 <__gmon_start__@plt>
  400c5d:	48 83 c4 08          	add    $0x8,%rsp
  400c61:	c3                   	retq   

Disassembly of section .plt:

0000000000400c70 <.plt>:
  400c70:	ff 35 92 43 20 00    	pushq  0x204392(%rip)        # 605008 <_GLOBAL_OFFSET_TABLE_+0x8>
  400c76:	ff 25 94 43 20 00    	jmpq   *0x204394(%rip)        # 605010 <_GLOBAL_OFFSET_TABLE_+0x10>
  400c7c:	0f 1f 40 00          	nopl   0x0(%rax)

0000000000400c80 <strcasecmp@plt>:
  400c80:	ff 25 92 43 20 00    	jmpq   *0x204392(%rip)        # 605018 <strcasecmp@GLIBC_2.2.5>
  400c86:	68 00 00 00 00       	pushq  $0x0
  400c8b:	e9 e0 ff ff ff       	jmpq   400c70 <.plt>

0000000000400c90 <__errno_location@plt>:
  400c90:	ff 25 8a 43 20 00    	jmpq   *0x20438a(%rip)        # 605020 <__errno_location@GLIBC_2.2.5>
  400c96:	68 01 00 00 00       	pushq  $0x1
  400c9b:	e9 d0 ff ff ff       	jmpq   400c70 <.plt>

0000000000400ca0 <srandom@plt>:
  400ca0:	ff 25 82 43 20 00    	jmpq   *0x204382(%rip)        # 605028 <srandom@GLIBC_2.2.5>
  400ca6:	68 02 00 00 00       	pushq  $0x2
  400cab:	e9 c0 ff ff ff       	jmpq   400c70 <.plt>

0000000000400cb0 <strncmp@plt>:
  400cb0:	ff 25 7a 43 20 00    	jmpq   *0x20437a(%rip)        # 605030 <strncmp@GLIBC_2.2.5>
  400cb6:	68 03 00 00 00       	pushq  $0x3
  400cbb:	e9 b0 ff ff ff       	jmpq   400c70 <.plt>

0000000000400cc0 <strcpy@plt>:
  400cc0:	ff 25 72 43 20 00    	jmpq   *0x204372(%rip)        # 605038 <strcpy@GLIBC_2.2.5>
  400cc6:	68 04 00 00 00       	pushq  $0x4
  400ccb:	e9 a0 ff ff ff       	jmpq   400c70 <.plt>

0000000000400cd0 <puts@plt>:
  400cd0:	ff 25 6a 43 20 00    	jmpq   *0x20436a(%rip)        # 605040 <puts@GLIBC_2.2.5>
  400cd6:	68 05 00 00 00       	pushq  $0x5
  400cdb:	e9 90 ff ff ff       	jmpq   400c70 <.plt>

0000000000400ce0 <write@plt>:
  400ce0:	ff 25 62 43 20 00    	jmpq   *0x204362(%rip)        # 605048 <write@GLIBC_2.2.5>
  400ce6:	68 06 00 00 00       	pushq  $0x6
  400ceb:	e9 80 ff ff ff       	jmpq   400c70 <.plt>

0000000000400cf0 <__stack_chk_fail@plt>:
  400cf0:	ff 25 5a 43 20 00    	jmpq   *0x20435a(%rip)        # 605050 <__stack_chk_fail@GLIBC_2.4>
  400cf6:	68 07 00 00 00       	pushq  $0x7
  400cfb:	e9 70 ff ff ff       	jmpq   400c70 <.plt>

0000000000400d00 <mmap@plt>:
  400d00:	ff 25 52 43 20 00    	jmpq   *0x204352(%rip)        # 605058 <mmap@GLIBC_2.2.5>
  400d06:	68 08 00 00 00       	pushq  $0x8
  400d0b:	e9 60 ff ff ff       	jmpq   400c70 <.plt>

0000000000400d10 <memset@plt>:
  400d10:	ff 25 4a 43 20 00    	jmpq   *0x20434a(%rip)        # 605060 <memset@GLIBC_2.2.5>
  400d16:	68 09 00 00 00       	pushq  $0x9
  400d1b:	e9 50 ff ff ff       	jmpq   400c70 <.plt>

0000000000400d20 <alarm@plt>:
  400d20:	ff 25 42 43 20 00    	jmpq   *0x204342(%rip)        # 605068 <alarm@GLIBC_2.2.5>
  400d26:	68 0a 00 00 00       	pushq  $0xa
  400d2b:	e9 40 ff ff ff       	jmpq   400c70 <.plt>

0000000000400d30 <close@plt>:
  400d30:	ff 25 3a 43 20 00    	jmpq   *0x20433a(%rip)        # 605070 <close@GLIBC_2.2.5>
  400d36:	68 0b 00 00 00       	pushq  $0xb
  400d3b:	e9 30 ff ff ff       	jmpq   400c70 <.plt>

0000000000400d40 <read@plt>:
  400d40:	ff 25 32 43 20 00    	jmpq   *0x204332(%rip)        # 605078 <read@GLIBC_2.2.5>
  400d46:	68 0c 00 00 00       	pushq  $0xc
  400d4b:	e9 20 ff ff ff       	jmpq   400c70 <.plt>

0000000000400d50 <__libc_start_main@plt>:
  400d50:	ff 25 2a 43 20 00    	jmpq   *0x20432a(%rip)        # 605080 <__libc_start_main@GLIBC_2.2.5>
  400d56:	68 0d 00 00 00       	pushq  $0xd
  400d5b:	e9 10 ff ff ff       	jmpq   400c70 <.plt>

0000000000400d60 <signal@plt>:
  400d60:	ff 25 22 43 20 00    	jmpq   *0x204322(%rip)        # 605088 <signal@GLIBC_2.2.5>
  400d66:	68 0e 00 00 00       	pushq  $0xe
  400d6b:	e9 00 ff ff ff       	jmpq   400c70 <.plt>

0000000000400d70 <gethostbyname@plt>:
  400d70:	ff 25 1a 43 20 00    	jmpq   *0x20431a(%rip)        # 605090 <gethostbyname@GLIBC_2.2.5>
  400d76:	68 0f 00 00 00       	pushq  $0xf
  400d7b:	e9 f0 fe ff ff       	jmpq   400c70 <.plt>

0000000000400d80 <__memmove_chk@plt>:
  400d80:	ff 25 12 43 20 00    	jmpq   *0x204312(%rip)        # 605098 <__memmove_chk@GLIBC_2.3.4>
  400d86:	68 10 00 00 00       	pushq  $0x10
  400d8b:	e9 e0 fe ff ff       	jmpq   400c70 <.plt>

0000000000400d90 <strtol@plt>:
  400d90:	ff 25 0a 43 20 00    	jmpq   *0x20430a(%rip)        # 6050a0 <strtol@GLIBC_2.2.5>
  400d96:	68 11 00 00 00       	pushq  $0x11
  400d9b:	e9 d0 fe ff ff       	jmpq   400c70 <.plt>

0000000000400da0 <memcpy@plt>:
  400da0:	ff 25 02 43 20 00    	jmpq   *0x204302(%rip)        # 6050a8 <memcpy@GLIBC_2.14>
  400da6:	68 12 00 00 00       	pushq  $0x12
  400dab:	e9 c0 fe ff ff       	jmpq   400c70 <.plt>

0000000000400db0 <time@plt>:
  400db0:	ff 25 fa 42 20 00    	jmpq   *0x2042fa(%rip)        # 6050b0 <time@GLIBC_2.2.5>
  400db6:	68 13 00 00 00       	pushq  $0x13
  400dbb:	e9 b0 fe ff ff       	jmpq   400c70 <.plt>

0000000000400dc0 <random@plt>:
  400dc0:	ff 25 f2 42 20 00    	jmpq   *0x2042f2(%rip)        # 6050b8 <random@GLIBC_2.2.5>
  400dc6:	68 14 00 00 00       	pushq  $0x14
  400dcb:	e9 a0 fe ff ff       	jmpq   400c70 <.plt>

0000000000400dd0 <_IO_getc@plt>:
  400dd0:	ff 25 ea 42 20 00    	jmpq   *0x2042ea(%rip)        # 6050c0 <_IO_getc@GLIBC_2.2.5>
  400dd6:	68 15 00 00 00       	pushq  $0x15
  400ddb:	e9 90 fe ff ff       	jmpq   400c70 <.plt>

0000000000400de0 <__isoc99_sscanf@plt>:
  400de0:	ff 25 e2 42 20 00    	jmpq   *0x2042e2(%rip)        # 6050c8 <__isoc99_sscanf@GLIBC_2.7>
  400de6:	68 16 00 00 00       	pushq  $0x16
  400deb:	e9 80 fe ff ff       	jmpq   400c70 <.plt>

0000000000400df0 <munmap@plt>:
  400df0:	ff 25 da 42 20 00    	jmpq   *0x2042da(%rip)        # 6050d0 <munmap@GLIBC_2.2.5>
  400df6:	68 17 00 00 00       	pushq  $0x17
  400dfb:	e9 70 fe ff ff       	jmpq   400c70 <.plt>

0000000000400e00 <__printf_chk@plt>:
  400e00:	ff 25 d2 42 20 00    	jmpq   *0x2042d2(%rip)        # 6050d8 <__printf_chk@GLIBC_2.3.4>
  400e06:	68 18 00 00 00       	pushq  $0x18
  400e0b:	e9 60 fe ff ff       	jmpq   400c70 <.plt>

0000000000400e10 <fopen@plt>:
  400e10:	ff 25 ca 42 20 00    	jmpq   *0x2042ca(%rip)        # 6050e0 <fopen@GLIBC_2.2.5>
  400e16:	68 19 00 00 00       	pushq  $0x19
  400e1b:	e9 50 fe ff ff       	jmpq   400c70 <.plt>

0000000000400e20 <getopt@plt>:
  400e20:	ff 25 c2 42 20 00    	jmpq   *0x2042c2(%rip)        # 6050e8 <getopt@GLIBC_2.2.5>
  400e26:	68 1a 00 00 00       	pushq  $0x1a
  400e2b:	e9 40 fe ff ff       	jmpq   400c70 <.plt>

0000000000400e30 <strtoul@plt>:
  400e30:	ff 25 ba 42 20 00    	jmpq   *0x2042ba(%rip)        # 6050f0 <strtoul@GLIBC_2.2.5>
  400e36:	68 1b 00 00 00       	pushq  $0x1b
  400e3b:	e9 30 fe ff ff       	jmpq   400c70 <.plt>

0000000000400e40 <gethostname@plt>:
  400e40:	ff 25 b2 42 20 00    	jmpq   *0x2042b2(%rip)        # 6050f8 <gethostname@GLIBC_2.2.5>
  400e46:	68 1c 00 00 00       	pushq  $0x1c
  400e4b:	e9 20 fe ff ff       	jmpq   400c70 <.plt>

0000000000400e50 <exit@plt>:
  400e50:	ff 25 aa 42 20 00    	jmpq   *0x2042aa(%rip)        # 605100 <exit@GLIBC_2.2.5>
  400e56:	68 1d 00 00 00       	pushq  $0x1d
  400e5b:	e9 10 fe ff ff       	jmpq   400c70 <.plt>

0000000000400e60 <connect@plt>:
  400e60:	ff 25 a2 42 20 00    	jmpq   *0x2042a2(%rip)        # 605108 <connect@GLIBC_2.2.5>
  400e66:	68 1e 00 00 00       	pushq  $0x1e
  400e6b:	e9 00 fe ff ff       	jmpq   400c70 <.plt>

0000000000400e70 <__fprintf_chk@plt>:
  400e70:	ff 25 9a 42 20 00    	jmpq   *0x20429a(%rip)        # 605110 <__fprintf_chk@GLIBC_2.3.4>
  400e76:	68 1f 00 00 00       	pushq  $0x1f
  400e7b:	e9 f0 fd ff ff       	jmpq   400c70 <.plt>

0000000000400e80 <__sprintf_chk@plt>:
  400e80:	ff 25 92 42 20 00    	jmpq   *0x204292(%rip)        # 605118 <__sprintf_chk@GLIBC_2.3.4>
  400e86:	68 20 00 00 00       	pushq  $0x20
  400e8b:	e9 e0 fd ff ff       	jmpq   400c70 <.plt>

0000000000400e90 <socket@plt>:
  400e90:	ff 25 8a 42 20 00    	jmpq   *0x20428a(%rip)        # 605120 <socket@GLIBC_2.2.5>
  400e96:	68 21 00 00 00       	pushq  $0x21
  400e9b:	e9 d0 fd ff ff       	jmpq   400c70 <.plt>

Disassembly of section .plt.got:

0000000000400ea0 <__gmon_start__@plt>:
  400ea0:	ff 25 52 41 20 00    	jmpq   *0x204152(%rip)        # 604ff8 <__gmon_start__>
  400ea6:	66 90                	xchg   %ax,%ax

Disassembly of section .text:

0000000000400eb0 <_start>:
  400eb0:	31 ed                	xor    %ebp,%ebp
  400eb2:	49 89 d1             	mov    %rdx,%r9
  400eb5:	5e                   	pop    %rsi
  400eb6:	48 89 e2             	mov    %rsp,%rdx
  400eb9:	48 83 e4 f0          	and    $0xfffffffffffffff0,%rsp
  400ebd:	50                   	push   %rax
  400ebe:	54                   	push   %rsp
  400ebf:	49 c7 c0 b0 2f 40 00 	mov    $0x402fb0,%r8
  400ec6:	48 c7 c1 40 2f 40 00 	mov    $0x402f40,%rcx
  400ecd:	48 c7 c7 b5 11 40 00 	mov    $0x4011b5,%rdi
  400ed4:	e8 77 fe ff ff       	callq  400d50 <__libc_start_main@plt>
  400ed9:	f4                   	hlt    
  400eda:	66 0f 1f 44 00 00    	nopw   0x0(%rax,%rax,1)

0000000000400ee0 <deregister_tm_clones>:
  400ee0:	b8 b7 54 60 00       	mov    $0x6054b7,%eax
  400ee5:	55                   	push   %rbp
  400ee6:	48 2d b0 54 60 00    	sub    $0x6054b0,%rax
  400eec:	48 83 f8 0e          	cmp    $0xe,%rax
  400ef0:	48 89 e5             	mov    %rsp,%rbp
  400ef3:	76 1b                	jbe    400f10 <deregister_tm_clones+0x30>
  400ef5:	b8 00 00 00 00       	mov    $0x0,%eax
  400efa:	48 85 c0             	test   %rax,%rax
  400efd:	74 11                	je     400f10 <deregister_tm_clones+0x30>
  400eff:	5d                   	pop    %rbp
  400f00:	bf b0 54 60 00       	mov    $0x6054b0,%edi
  400f05:	ff e0                	jmpq   *%rax
  400f07:	66 0f 1f 84 00 00 00 	nopw   0x0(%rax,%rax,1)
  400f0e:	00 00 
  400f10:	5d                   	pop    %rbp
  400f11:	c3                   	retq   
  400f12:	0f 1f 40 00          	nopl   0x0(%rax)
  400f16:	66 2e 0f 1f 84 00 00 	nopw   %cs:0x0(%rax,%rax,1)
  400f1d:	00 00 00 

0000000000400f20 <register_tm_clones>:
  400f20:	be b0 54 60 00       	mov    $0x6054b0,%esi
  400f25:	55                   	push   %rbp
  400f26:	48 81 ee b0 54 60 00 	sub    $0x6054b0,%rsi
  400f2d:	48 c1 fe 03          	sar    $0x3,%rsi
  400f31:	48 89 e5             	mov    %rsp,%rbp
  400f34:	48 89 f0             	mov    %rsi,%rax
  400f37:	48 c1 e8 3f          	shr    $0x3f,%rax
  400f3b:	48 01 c6             	add    %rax,%rsi
  400f3e:	48 d1 fe             	sar    %rsi
  400f41:	74 15                	je     400f58 <register_tm_clones+0x38>
  400f43:	b8 00 00 00 00       	mov    $0x0,%eax
  400f48:	48 85 c0             	test   %rax,%rax
  400f4b:	74 0b                	je     400f58 <register_tm_clones+0x38>
  400f4d:	5d                   	pop    %rbp
  400f4e:	bf b0 54 60 00       	mov    $0x6054b0,%edi
  400f53:	ff e0                	jmpq   *%rax
  400f55:	0f 1f 00             	nopl   (%rax)
  400f58:	5d                   	pop    %rbp
  400f59:	c3                   	retq   
  400f5a:	66 0f 1f 44 00 00    	nopw   0x0(%rax,%rax,1)

0000000000400f60 <__do_global_dtors_aux>:
  400f60:	80 3d 81 45 20 00 00 	cmpb   $0x0,0x204581(%rip)        # 6054e8 <completed.7594>
  400f67:	75 11                	jne    400f7a <__do_global_dtors_aux+0x1a>
  400f69:	55                   	push   %rbp
  400f6a:	48 89 e5             	mov    %rsp,%rbp
  400f6d:	e8 6e ff ff ff       	callq  400ee0 <deregister_tm_clones>
  400f72:	5d                   	pop    %rbp
  400f73:	c6 05 6e 45 20 00 01 	movb   $0x1,0x20456e(%rip)        # 6054e8 <completed.7594>
  400f7a:	f3 c3                	repz retq 
  400f7c:	0f 1f 40 00          	nopl   0x0(%rax)

0000000000400f80 <frame_dummy>:
  400f80:	bf 20 4e 60 00       	mov    $0x604e20,%edi
  400f85:	48 83 3f 00          	cmpq   $0x0,(%rdi)
  400f89:	75 05                	jne    400f90 <frame_dummy+0x10>
  400f8b:	eb 93                	jmp    400f20 <register_tm_clones>
  400f8d:	0f 1f 00             	nopl   (%rax)
  400f90:	b8 00 00 00 00       	mov    $0x0,%eax
  400f95:	48 85 c0             	test   %rax,%rax
  400f98:	74 f1                	je     400f8b <frame_dummy+0xb>
  400f9a:	55                   	push   %rbp
  400f9b:	48 89 e5             	mov    %rsp,%rbp
  400f9e:	ff d0                	callq  *%rax
  400fa0:	5d                   	pop    %rbp
  400fa1:	e9 7a ff ff ff       	jmpq   400f20 <register_tm_clones>

0000000000400fa6 <usage>:
  400fa6:	48 83 ec 08          	sub    $0x8,%rsp
  400faa:	48 89 fa             	mov    %rdi,%rdx
  400fad:	83 3d 74 45 20 00 00 	cmpl   $0x0,0x204574(%rip)        # 605528 <is_checker>
  400fb4:	74 3e                	je     400ff4 <usage+0x4e>
  400fb6:	be c8 2f 40 00       	mov    $0x402fc8,%esi
  400fbb:	bf 01 00 00 00       	mov    $0x1,%edi
  400fc0:	b8 00 00 00 00       	mov    $0x0,%eax
  400fc5:	e8 36 fe ff ff       	callq  400e00 <__printf_chk@plt>
  400fca:	bf 00 30 40 00       	mov    $0x403000,%edi
  400fcf:	e8 fc fc ff ff       	callq  400cd0 <puts@plt>
  400fd4:	bf 78 31 40 00       	mov    $0x403178,%edi
  400fd9:	e8 f2 fc ff ff       	callq  400cd0 <puts@plt>
  400fde:	bf 28 30 40 00       	mov    $0x403028,%edi
  400fe3:	e8 e8 fc ff ff       	callq  400cd0 <puts@plt>
  400fe8:	bf 92 31 40 00       	mov    $0x403192,%edi
  400fed:	e8 de fc ff ff       	callq  400cd0 <puts@plt>
  400ff2:	eb 32                	jmp    401026 <usage+0x80>
  400ff4:	be ae 31 40 00       	mov    $0x4031ae,%esi
  400ff9:	bf 01 00 00 00       	mov    $0x1,%edi
  400ffe:	b8 00 00 00 00       	mov    $0x0,%eax
  401003:	e8 f8 fd ff ff       	callq  400e00 <__printf_chk@plt>
  401008:	bf 50 30 40 00       	mov    $0x403050,%edi
  40100d:	e8 be fc ff ff       	callq  400cd0 <puts@plt>
  401012:	bf 78 30 40 00       	mov    $0x403078,%edi
  401017:	e8 b4 fc ff ff       	callq  400cd0 <puts@plt>
  40101c:	bf cc 31 40 00       	mov    $0x4031cc,%edi
  401021:	e8 aa fc ff ff       	callq  400cd0 <puts@plt>
  401026:	bf 00 00 00 00       	mov    $0x0,%edi
  40102b:	e8 20 fe ff ff       	callq  400e50 <exit@plt>

0000000000401030 <initialize_target>:
  401030:	55                   	push   %rbp
  401031:	53                   	push   %rbx
  401032:	48 81 ec 18 21 00 00 	sub    $0x2118,%rsp
  401039:	89 f5                	mov    %esi,%ebp
  40103b:	64 48 8b 04 25 28 00 	mov    %fs:0x28,%rax
  401042:	00 00 
  401044:	48 89 84 24 08 21 00 	mov    %rax,0x2108(%rsp)
  40104b:	00 
  40104c:	31 c0                	xor    %eax,%eax
  40104e:	89 3d c4 44 20 00    	mov    %edi,0x2044c4(%rip)        # 605518 <check_level>
  401054:	8b 3d 0e 41 20 00    	mov    0x20410e(%rip),%edi        # 605168 <target_id>
  40105a:	e8 c2 1e 00 00       	callq  402f21 <gencookie>
  40105f:	89 05 bf 44 20 00    	mov    %eax,0x2044bf(%rip)        # 605524 <cookie>
  401065:	89 c7                	mov    %eax,%edi
  401067:	e8 b5 1e 00 00       	callq  402f21 <gencookie>
  40106c:	89 05 ae 44 20 00    	mov    %eax,0x2044ae(%rip)        # 605520 <authkey>
  401072:	8b 05 f0 40 20 00    	mov    0x2040f0(%rip),%eax        # 605168 <target_id>
  401078:	8d 78 01             	lea    0x1(%rax),%edi
  40107b:	e8 20 fc ff ff       	callq  400ca0 <srandom@plt>
  401080:	e8 3b fd ff ff       	callq  400dc0 <random@plt>
  401085:	89 c7                	mov    %eax,%edi
  401087:	e8 03 03 00 00       	callq  40138f <scramble>
  40108c:	89 c3                	mov    %eax,%ebx
  40108e:	85 ed                	test   %ebp,%ebp
  401090:	74 18                	je     4010aa <initialize_target+0x7a>
  401092:	bf 00 00 00 00       	mov    $0x0,%edi
  401097:	e8 14 fd ff ff       	callq  400db0 <time@plt>
  40109c:	89 c7                	mov    %eax,%edi
  40109e:	e8 fd fb ff ff       	callq  400ca0 <srandom@plt>
  4010a3:	e8 18 fd ff ff       	callq  400dc0 <random@plt>
  4010a8:	eb 05                	jmp    4010af <initialize_target+0x7f>
  4010aa:	b8 00 00 00 00       	mov    $0x0,%eax
  4010af:	01 c3                	add    %eax,%ebx
  4010b1:	0f b7 db             	movzwl %bx,%ebx
  4010b4:	8d 04 dd 00 01 00 00 	lea    0x100(,%rbx,8),%eax
  4010bb:	89 c0                	mov    %eax,%eax
  4010bd:	48 89 05 dc 43 20 00 	mov    %rax,0x2043dc(%rip)        # 6054a0 <buf_offset>
  4010c4:	c6 05 7d 50 20 00 72 	movb   $0x72,0x20507d(%rip)        # 606148 <target_prefix>
  4010cb:	83 3d d6 43 20 00 00 	cmpl   $0x0,0x2043d6(%rip)        # 6054a8 <notify>
  4010d2:	0f 84 bb 00 00 00    	je     401193 <initialize_target+0x163>
  4010d8:	83 3d 49 44 20 00 00 	cmpl   $0x0,0x204449(%rip)        # 605528 <is_checker>
  4010df:	0f 85 ae 00 00 00    	jne    401193 <initialize_target+0x163>
  4010e5:	be 00 01 00 00       	mov    $0x100,%esi
  4010ea:	48 89 e7             	mov    %rsp,%rdi
  4010ed:	e8 4e fd ff ff       	callq  400e40 <gethostname@plt>
  4010f2:	85 c0                	test   %eax,%eax
  4010f4:	74 25                	je     40111b <initialize_target+0xeb>
  4010f6:	bf a8 30 40 00       	mov    $0x4030a8,%edi
  4010fb:	e8 d0 fb ff ff       	callq  400cd0 <puts@plt>
  401100:	bf 08 00 00 00       	mov    $0x8,%edi
  401105:	e8 46 fd ff ff       	callq  400e50 <exit@plt>
  40110a:	48 89 e6             	mov    %rsp,%rsi
  40110d:	e8 6e fb ff ff       	callq  400c80 <strcasecmp@plt>
  401112:	85 c0                	test   %eax,%eax
  401114:	74 21                	je     401137 <initialize_target+0x107>
  401116:	83 c3 01             	add    $0x1,%ebx
  401119:	eb 05                	jmp    401120 <initialize_target+0xf0>
  40111b:	bb 00 00 00 00       	mov    $0x0,%ebx
  401120:	48 63 c3             	movslq %ebx,%rax
  401123:	48 8b 3c c5 80 51 60 	mov    0x605180(,%rax,8),%rdi
  40112a:	00 
  40112b:	48 85 ff             	test   %rdi,%rdi
  40112e:	75 da                	jne    40110a <initialize_target+0xda>
  401130:	b8 00 00 00 00       	mov    $0x0,%eax
  401135:	eb 05                	jmp    40113c <initialize_target+0x10c>
  401137:	b8 01 00 00 00       	mov    $0x1,%eax
  40113c:	85 c0                	test   %eax,%eax
  40113e:	75 1c                	jne    40115c <initialize_target+0x12c>
  401140:	48 89 e2             	mov    %rsp,%rdx
  401143:	be e0 30 40 00       	mov    $0x4030e0,%esi
  401148:	bf 01 00 00 00       	mov    $0x1,%edi
  40114d:	e8 ae fc ff ff       	callq  400e00 <__printf_chk@plt>
  401152:	bf 08 00 00 00       	mov    $0x8,%edi
  401157:	e8 f4 fc ff ff       	callq  400e50 <exit@plt>
  40115c:	48 8d bc 24 00 01 00 	lea    0x100(%rsp),%rdi
  401163:	00 
  401164:	e8 22 1b 00 00       	callq  402c8b <init_driver>
  401169:	85 c0                	test   %eax,%eax
  40116b:	79 26                	jns    401193 <initialize_target+0x163>
  40116d:	48 8d 94 24 00 01 00 	lea    0x100(%rsp),%rdx
  401174:	00 
  401175:	be 20 31 40 00       	mov    $0x403120,%esi
  40117a:	bf 01 00 00 00       	mov    $0x1,%edi
  40117f:	b8 00 00 00 00       	mov    $0x0,%eax
  401184:	e8 77 fc ff ff       	callq  400e00 <__printf_chk@plt>
  401189:	bf 08 00 00 00       	mov    $0x8,%edi
  40118e:	e8 bd fc ff ff       	callq  400e50 <exit@plt>
  401193:	48 8b 84 24 08 21 00 	mov    0x2108(%rsp),%rax
  40119a:	00 
  40119b:	64 48 33 04 25 28 00 	xor    %fs:0x28,%rax
  4011a2:	00 00 
  4011a4:	74 05                	je     4011ab <initialize_target+0x17b>
  4011a6:	e8 45 fb ff ff       	callq  400cf0 <__stack_chk_fail@plt>
  4011ab:	48 81 c4 18 21 00 00 	add    $0x2118,%rsp
  4011b2:	5b                   	pop    %rbx
  4011b3:	5d                   	pop    %rbp
  4011b4:	c3                   	retq   

00000000004011b5 <main>:
  4011b5:	41 56                	push   %r14
  4011b7:	41 55                	push   %r13
  4011b9:	41 54                	push   %r12
  4011bb:	55                   	push   %rbp
  4011bc:	53                   	push   %rbx
  4011bd:	41 89 fc             	mov    %edi,%r12d
  4011c0:	48 89 f3             	mov    %rsi,%rbx
  4011c3:	be c6 1f 40 00       	mov    $0x401fc6,%esi
  4011c8:	bf 0b 00 00 00       	mov    $0xb,%edi
  4011cd:	e8 8e fb ff ff       	callq  400d60 <signal@plt>
  4011d2:	be 78 1f 40 00       	mov    $0x401f78,%esi
  4011d7:	bf 07 00 00 00       	mov    $0x7,%edi
  4011dc:	e8 7f fb ff ff       	callq  400d60 <signal@plt>
  4011e1:	be 14 20 40 00       	mov    $0x402014,%esi
  4011e6:	bf 04 00 00 00       	mov    $0x4,%edi
  4011eb:	e8 70 fb ff ff       	callq  400d60 <signal@plt>
  4011f0:	83 3d 31 43 20 00 00 	cmpl   $0x0,0x204331(%rip)        # 605528 <is_checker>
  4011f7:	74 20                	je     401219 <main+0x64>
  4011f9:	be 62 20 40 00       	mov    $0x402062,%esi
  4011fe:	bf 0e 00 00 00       	mov    $0xe,%edi
  401203:	e8 58 fb ff ff       	callq  400d60 <signal@plt>
  401208:	bf 05 00 00 00       	mov    $0x5,%edi
  40120d:	e8 0e fb ff ff       	callq  400d20 <alarm@plt>
  401212:	bd ea 31 40 00       	mov    $0x4031ea,%ebp
  401217:	eb 05                	jmp    40121e <main+0x69>
  401219:	bd e5 31 40 00       	mov    $0x4031e5,%ebp
  40121e:	48 8b 05 9b 42 20 00 	mov    0x20429b(%rip),%rax        # 6054c0 <stdin@@GLIBC_2.2.5>
  401225:	48 89 05 e4 42 20 00 	mov    %rax,0x2042e4(%rip)        # 605510 <infile>
  40122c:	41 bd 00 00 00 00    	mov    $0x0,%r13d
  401232:	41 be 00 00 00 00    	mov    $0x0,%r14d
  401238:	e9 c6 00 00 00       	jmpq   401303 <main+0x14e>
  40123d:	83 e8 61             	sub    $0x61,%eax
  401240:	3c 10                	cmp    $0x10,%al
  401242:	0f 87 9c 00 00 00    	ja     4012e4 <main+0x12f>
  401248:	0f b6 c0             	movzbl %al,%eax
  40124b:	ff 24 c5 30 32 40 00 	jmpq   *0x403230(,%rax,8)
  401252:	48 8b 3b             	mov    (%rbx),%rdi
  401255:	e8 4c fd ff ff       	callq  400fa6 <usage>
  40125a:	be 2d 36 40 00       	mov    $0x40362d,%esi
  40125f:	48 8b 3d 62 42 20 00 	mov    0x204262(%rip),%rdi        # 6054c8 <optarg@@GLIBC_2.2.5>
  401266:	e8 a5 fb ff ff       	callq  400e10 <fopen@plt>
  40126b:	48 89 05 9e 42 20 00 	mov    %rax,0x20429e(%rip)        # 605510 <infile>
  401272:	48 85 c0             	test   %rax,%rax
  401275:	0f 85 88 00 00 00    	jne    401303 <main+0x14e>
  40127b:	48 8b 0d 46 42 20 00 	mov    0x204246(%rip),%rcx        # 6054c8 <optarg@@GLIBC_2.2.5>
  401282:	ba f2 31 40 00       	mov    $0x4031f2,%edx
  401287:	be 01 00 00 00       	mov    $0x1,%esi
  40128c:	48 8b 3d 4d 42 20 00 	mov    0x20424d(%rip),%rdi        # 6054e0 <stderr@@GLIBC_2.2.5>
  401293:	e8 d8 fb ff ff       	callq  400e70 <__fprintf_chk@plt>
  401298:	b8 01 00 00 00       	mov    $0x1,%eax
  40129d:	e9 e4 00 00 00       	jmpq   401386 <main+0x1d1>
  4012a2:	ba 10 00 00 00       	mov    $0x10,%edx
  4012a7:	be 00 00 00 00       	mov    $0x0,%esi
  4012ac:	48 8b 3d 15 42 20 00 	mov    0x204215(%rip),%rdi        # 6054c8 <optarg@@GLIBC_2.2.5>
  4012b3:	e8 78 fb ff ff       	callq  400e30 <strtoul@plt>
  4012b8:	41 89 c6             	mov    %eax,%r14d
  4012bb:	eb 46                	jmp    401303 <main+0x14e>
  4012bd:	ba 0a 00 00 00       	mov    $0xa,%edx
  4012c2:	be 00 00 00 00       	mov    $0x0,%esi
  4012c7:	48 8b 3d fa 41 20 00 	mov    0x2041fa(%rip),%rdi        # 6054c8 <optarg@@GLIBC_2.2.5>
  4012ce:	e8 bd fa ff ff       	callq  400d90 <strtol@plt>
  4012d3:	41 89 c5             	mov    %eax,%r13d
  4012d6:	eb 2b                	jmp    401303 <main+0x14e>
  4012d8:	c7 05 c6 41 20 00 00 	movl   $0x0,0x2041c6(%rip)        # 6054a8 <notify>
  4012df:	00 00 00 
  4012e2:	eb 1f                	jmp    401303 <main+0x14e>
  4012e4:	0f be d2             	movsbl %dl,%edx
  4012e7:	be 0f 32 40 00       	mov    $0x40320f,%esi
  4012ec:	bf 01 00 00 00       	mov    $0x1,%edi
  4012f1:	b8 00 00 00 00       	mov    $0x0,%eax
  4012f6:	e8 05 fb ff ff       	callq  400e00 <__printf_chk@plt>
  4012fb:	48 8b 3b             	mov    (%rbx),%rdi
  4012fe:	e8 a3 fc ff ff       	callq  400fa6 <usage>
  401303:	48 89 ea             	mov    %rbp,%rdx
  401306:	48 89 de             	mov    %rbx,%rsi
  401309:	44 89 e7             	mov    %r12d,%edi
  40130c:	e8 0f fb ff ff       	callq  400e20 <getopt@plt>
  401311:	89 c2                	mov    %eax,%edx
  401313:	3c ff                	cmp    $0xff,%al
  401315:	0f 85 22 ff ff ff    	jne    40123d <main+0x88>
  40131b:	be 01 00 00 00       	mov    $0x1,%esi
  401320:	44 89 ef             	mov    %r13d,%edi
  401323:	e8 08 fd ff ff       	callq  401030 <initialize_target>
  401328:	83 3d f9 41 20 00 00 	cmpl   $0x0,0x2041f9(%rip)        # 605528 <is_checker>
  40132f:	74 2a                	je     40135b <main+0x1a6>
  401331:	44 3b 35 e8 41 20 00 	cmp    0x2041e8(%rip),%r14d        # 605520 <authkey>
  401338:	74 21                	je     40135b <main+0x1a6>
  40133a:	44 89 f2             	mov    %r14d,%edx
  40133d:	be 48 31 40 00       	mov    $0x403148,%esi
  401342:	bf 01 00 00 00       	mov    $0x1,%edi
  401347:	b8 00 00 00 00       	mov    $0x0,%eax
  40134c:	e8 af fa ff ff       	callq  400e00 <__printf_chk@plt>
  401351:	b8 00 00 00 00       	mov    $0x0,%eax
  401356:	e8 b9 08 00 00       	callq  401c14 <check_fail>
  40135b:	8b 15 c3 41 20 00    	mov    0x2041c3(%rip),%edx        # 605524 <cookie>
  401361:	be 22 32 40 00       	mov    $0x403222,%esi
  401366:	bf 01 00 00 00       	mov    $0x1,%edi
  40136b:	b8 00 00 00 00       	mov    $0x0,%eax
  401370:	e8 8b fa ff ff       	callq  400e00 <__printf_chk@plt>
  401375:	48 8b 3d 24 41 20 00 	mov    0x204124(%rip),%rdi        # 6054a0 <buf_offset>
  40137c:	e8 34 0d 00 00       	callq  4020b5 <launch>
  401381:	b8 00 00 00 00       	mov    $0x0,%eax
  401386:	5b                   	pop    %rbx
  401387:	5d                   	pop    %rbp
  401388:	41 5c                	pop    %r12
  40138a:	41 5d                	pop    %r13
  40138c:	41 5e                	pop    %r14
  40138e:	c3                   	retq   

000000000040138f <scramble>:
  40138f:	48 83 ec 38          	sub    $0x38,%rsp
  401393:	64 48 8b 04 25 28 00 	mov    %fs:0x28,%rax
  40139a:	00 00 
  40139c:	48 89 44 24 28       	mov    %rax,0x28(%rsp)
  4013a1:	31 c0                	xor    %eax,%eax
  4013a3:	eb 10                	jmp    4013b5 <scramble+0x26>
  4013a5:	69 d0 03 55 00 00    	imul   $0x5503,%eax,%edx
  4013ab:	01 fa                	add    %edi,%edx
  4013ad:	89 c1                	mov    %eax,%ecx
  4013af:	89 14 8c             	mov    %edx,(%rsp,%rcx,4)
  4013b2:	83 c0 01             	add    $0x1,%eax
  4013b5:	83 f8 09             	cmp    $0x9,%eax
  4013b8:	76 eb                	jbe    4013a5 <scramble+0x16>
  4013ba:	8b 44 24 0c          	mov    0xc(%rsp),%eax
  4013be:	69 c0 f1 d1 00 00    	imul   $0xd1f1,%eax,%eax
  4013c4:	89 44 24 0c          	mov    %eax,0xc(%rsp)
  4013c8:	8b 44 24 04          	mov    0x4(%rsp),%eax
  4013cc:	69 c0 f9 d9 00 00    	imul   $0xd9f9,%eax,%eax
  4013d2:	89 44 24 04          	mov    %eax,0x4(%rsp)
  4013d6:	8b 44 24 20          	mov    0x20(%rsp),%eax
  4013da:	69 c0 3e 9a 00 00    	imul   $0x9a3e,%eax,%eax
  4013e0:	89 44 24 20          	mov    %eax,0x20(%rsp)
  4013e4:	8b 44 24 20          	mov    0x20(%rsp),%eax
  4013e8:	69 c0 0e e7 00 00    	imul   $0xe70e,%eax,%eax
  4013ee:	89 44 24 20          	mov    %eax,0x20(%rsp)
  4013f2:	8b 44 24 08          	mov    0x8(%rsp),%eax
  4013f6:	69 c0 6f 6b 00 00    	imul   $0x6b6f,%eax,%eax
  4013fc:	89 44 24 08          	mov    %eax,0x8(%rsp)
  401400:	8b 44 24 18          	mov    0x18(%rsp),%eax
  401404:	69 c0 5e a9 00 00    	imul   $0xa95e,%eax,%eax
  40140a:	89 44 24 18          	mov    %eax,0x18(%rsp)
  40140e:	8b 44 24 0c          	mov    0xc(%rsp),%eax
  401412:	69 c0 00 35 00 00    	imul   $0x3500,%eax,%eax
  401418:	89 44 24 0c          	mov    %eax,0xc(%rsp)
  40141c:	8b 44 24 14          	mov    0x14(%rsp),%eax
  401420:	69 c0 93 7a 00 00    	imul   $0x7a93,%eax,%eax
  401426:	89 44 24 14          	mov    %eax,0x14(%rsp)
  40142a:	8b 44 24 08          	mov    0x8(%rsp),%eax
  40142e:	69 c0 65 a9 00 00    	imul   $0xa965,%eax,%eax
  401434:	89 44 24 08          	mov    %eax,0x8(%rsp)
  401438:	8b 44 24 04          	mov    0x4(%rsp),%eax
  40143c:	69 c0 a9 96 00 00    	imul   $0x96a9,%eax,%eax
  401442:	89 44 24 04          	mov    %eax,0x4(%rsp)
  401446:	8b 44 24 08          	mov    0x8(%rsp),%eax
  40144a:	69 c0 50 41 00 00    	imul   $0x4150,%eax,%eax
  401450:	89 44 24 08          	mov    %eax,0x8(%rsp)
  401454:	8b 44 24 14          	mov    0x14(%rsp),%eax
  401458:	69 c0 e0 f4 00 00    	imul   $0xf4e0,%eax,%eax
  40145e:	89 44 24 14          	mov    %eax,0x14(%rsp)
  401462:	8b 44 24 0c          	mov    0xc(%rsp),%eax
  401466:	69 c0 35 75 00 00    	imul   $0x7535,%eax,%eax
  40146c:	89 44 24 0c          	mov    %eax,0xc(%rsp)
  401470:	8b 44 24 10          	mov    0x10(%rsp),%eax
  401474:	69 c0 b9 fe 00 00    	imul   $0xfeb9,%eax,%eax
  40147a:	89 44 24 10          	mov    %eax,0x10(%rsp)
  40147e:	8b 44 24 04          	mov    0x4(%rsp),%eax
  401482:	69 c0 a7 9a 00 00    	imul   $0x9aa7,%eax,%eax
  401488:	89 44 24 04          	mov    %eax,0x4(%rsp)
  40148c:	8b 44 24 08          	mov    0x8(%rsp),%eax
  401490:	69 c0 a1 c0 00 00    	imul   $0xc0a1,%eax,%eax
  401496:	89 44 24 08          	mov    %eax,0x8(%rsp)
  40149a:	8b 44 24 10          	mov    0x10(%rsp),%eax
  40149e:	69 c0 5e ce 00 00    	imul   $0xce5e,%eax,%eax
  4014a4:	89 44 24 10          	mov    %eax,0x10(%rsp)
  4014a8:	8b 44 24 0c          	mov    0xc(%rsp),%eax
  4014ac:	69 c0 50 cf 00 00    	imul   $0xcf50,%eax,%eax
  4014b2:	89 44 24 0c          	mov    %eax,0xc(%rsp)
  4014b6:	8b 04 24             	mov    (%rsp),%eax
  4014b9:	69 c0 04 9d 00 00    	imul   $0x9d04,%eax,%eax
  4014bf:	89 04 24             	mov    %eax,(%rsp)
  4014c2:	8b 44 24 04          	mov    0x4(%rsp),%eax
  4014c6:	69 c0 17 62 00 00    	imul   $0x6217,%eax,%eax
  4014cc:	89 44 24 04          	mov    %eax,0x4(%rsp)
  4014d0:	8b 44 24 14          	mov    0x14(%rsp),%eax
  4014d4:	69 c0 6c 0f 00 00    	imul   $0xf6c,%eax,%eax
  4014da:	89 44 24 14          	mov    %eax,0x14(%rsp)
  4014de:	8b 44 24 10          	mov    0x10(%rsp),%eax
  4014e2:	69 c0 e9 26 00 00    	imul   $0x26e9,%eax,%eax
  4014e8:	89 44 24 10          	mov    %eax,0x10(%rsp)
  4014ec:	8b 44 24 1c          	mov    0x1c(%rsp),%eax
  4014f0:	69 c0 4b d4 00 00    	imul   $0xd44b,%eax,%eax
  4014f6:	89 44 24 1c          	mov    %eax,0x1c(%rsp)
  4014fa:	8b 44 24 18          	mov    0x18(%rsp),%eax
  4014fe:	69 c0 df 48 00 00    	imul   $0x48df,%eax,%eax
  401504:	89 44 24 18          	mov    %eax,0x18(%rsp)
  401508:	8b 44 24 18          	mov    0x18(%rsp),%eax
  40150c:	69 c0 9d 3b 00 00    	imul   $0x3b9d,%eax,%eax
  401512:	89 44 24 18          	mov    %eax,0x18(%rsp)
  401516:	8b 44 24 04          	mov    0x4(%rsp),%eax
  40151a:	69 c0 a9 a6 00 00    	imul   $0xa6a9,%eax,%eax
  401520:	89 44 24 04          	mov    %eax,0x4(%rsp)
  401524:	8b 44 24 1c          	mov    0x1c(%rsp),%eax
  401528:	69 c0 86 4f 00 00    	imul   $0x4f86,%eax,%eax
  40152e:	89 44 24 1c          	mov    %eax,0x1c(%rsp)
  401532:	8b 44 24 14          	mov    0x14(%rsp),%eax
  401536:	69 c0 e2 9a 00 00    	imul   $0x9ae2,%eax,%eax
  40153c:	89 44 24 14          	mov    %eax,0x14(%rsp)
  401540:	8b 44 24 04          	mov    0x4(%rsp),%eax
  401544:	69 c0 e0 28 00 00    	imul   $0x28e0,%eax,%eax
  40154a:	89 44 24 04          	mov    %eax,0x4(%rsp)
  40154e:	8b 44 24 14          	mov    0x14(%rsp),%eax
  401552:	69 c0 59 30 00 00    	imul   $0x3059,%eax,%eax
  401558:	89 44 24 14          	mov    %eax,0x14(%rsp)
  40155c:	8b 44 24 1c          	mov    0x1c(%rsp),%eax
  401560:	69 c0 fb 3a 00 00    	imul   $0x3afb,%eax,%eax
  401566:	89 44 24 1c          	mov    %eax,0x1c(%rsp)
  40156a:	8b 44 24 24          	mov    0x24(%rsp),%eax
  40156e:	69 c0 1f 30 00 00    	imul   $0x301f,%eax,%eax
  401574:	89 44 24 24          	mov    %eax,0x24(%rsp)
  401578:	8b 44 24 0c          	mov    0xc(%rsp),%eax
  40157c:	69 c0 95 8b 00 00    	imul   $0x8b95,%eax,%eax
  401582:	89 44 24 0c          	mov    %eax,0xc(%rsp)
  401586:	8b 44 24 20          	mov    0x20(%rsp),%eax
  40158a:	69 c0 f6 71 00 00    	imul   $0x71f6,%eax,%eax
  401590:	89 44 24 20          	mov    %eax,0x20(%rsp)
  401594:	8b 44 24 18          	mov    0x18(%rsp),%eax
  401598:	69 c0 cd b5 00 00    	imul   $0xb5cd,%eax,%eax
  40159e:	89 44 24 18          	mov    %eax,0x18(%rsp)
  4015a2:	8b 44 24 1c          	mov    0x1c(%rsp),%eax
  4015a6:	69 c0 0d 31 00 00    	imul   $0x310d,%eax,%eax
  4015ac:	89 44 24 1c          	mov    %eax,0x1c(%rsp)
  4015b0:	8b 44 24 04          	mov    0x4(%rsp),%eax
  4015b4:	69 c0 83 df 00 00    	imul   $0xdf83,%eax,%eax
  4015ba:	89 44 24 04          	mov    %eax,0x4(%rsp)
  4015be:	8b 44 24 10          	mov    0x10(%rsp),%eax
  4015c2:	69 c0 a5 09 00 00    	imul   $0x9a5,%eax,%eax
  4015c8:	89 44 24 10          	mov    %eax,0x10(%rsp)
  4015cc:	8b 44 24 14          	mov    0x14(%rsp),%eax
  4015d0:	69 c0 74 f9 00 00    	imul   $0xf974,%eax,%eax
  4015d6:	89 44 24 14          	mov    %eax,0x14(%rsp)
  4015da:	8b 44 24 04          	mov    0x4(%rsp),%eax
  4015de:	69 c0 7e 31 00 00    	imul   $0x317e,%eax,%eax
  4015e4:	89 44 24 04          	mov    %eax,0x4(%rsp)
  4015e8:	8b 44 24 04          	mov    0x4(%rsp),%eax
  4015ec:	69 c0 0d 32 00 00    	imul   $0x320d,%eax,%eax
  4015f2:	89 44 24 04          	mov    %eax,0x4(%rsp)
  4015f6:	8b 04 24             	mov    (%rsp),%eax
  4015f9:	69 c0 ff b1 00 00    	imul   $0xb1ff,%eax,%eax
  4015ff:	89 04 24             	mov    %eax,(%rsp)
  401602:	8b 44 24 0c          	mov    0xc(%rsp),%eax
  401606:	69 c0 b0 73 00 00    	imul   $0x73b0,%eax,%eax
  40160c:	89 44 24 0c          	mov    %eax,0xc(%rsp)
  401610:	8b 04 24             	mov    (%rsp),%eax
  401613:	69 c0 4f 46 00 00    	imul   $0x464f,%eax,%eax
  401619:	89 04 24             	mov    %eax,(%rsp)
  40161c:	8b 44 24 24          	mov    0x24(%rsp),%eax
  401620:	69 c0 7d e6 00 00    	imul   $0xe67d,%eax,%eax
  401626:	89 44 24 24          	mov    %eax,0x24(%rsp)
  40162a:	8b 44 24 08          	mov    0x8(%rsp),%eax
  40162e:	69 c0 17 60 00 00    	imul   $0x6017,%eax,%eax
  401634:	89 44 24 08          	mov    %eax,0x8(%rsp)
  401638:	8b 44 24 14          	mov    0x14(%rsp),%eax
  40163c:	69 c0 a4 67 00 00    	imul   $0x67a4,%eax,%eax
  401642:	89 44 24 14          	mov    %eax,0x14(%rsp)
  401646:	8b 44 24 0c          	mov    0xc(%rsp),%eax
  40164a:	69 c0 d1 2a 00 00    	imul   $0x2ad1,%eax,%eax
  401650:	89 44 24 0c          	mov    %eax,0xc(%rsp)
  401654:	8b 44 24 18          	mov    0x18(%rsp),%eax
  401658:	69 c0 a6 8f 00 00    	imul   $0x8fa6,%eax,%eax
  40165e:	89 44 24 18          	mov    %eax,0x18(%rsp)
  401662:	8b 44 24 10          	mov    0x10(%rsp),%eax
  401666:	69 c0 d3 1b 00 00    	imul   $0x1bd3,%eax,%eax
  40166c:	89 44 24 10          	mov    %eax,0x10(%rsp)
  401670:	8b 44 24 0c          	mov    0xc(%rsp),%eax
  401674:	69 c0 d6 70 00 00    	imul   $0x70d6,%eax,%eax
  40167a:	89 44 24 0c          	mov    %eax,0xc(%rsp)
  40167e:	8b 44 24 1c          	mov    0x1c(%rsp),%eax
  401682:	69 c0 ad 0a 00 00    	imul   $0xaad,%eax,%eax
  401688:	89 44 24 1c          	mov    %eax,0x1c(%rsp)
  40168c:	8b 44 24 24          	mov    0x24(%rsp),%eax
  401690:	69 c0 d8 a4 00 00    	imul   $0xa4d8,%eax,%eax
  401696:	89 44 24 24          	mov    %eax,0x24(%rsp)
  40169a:	8b 44 24 10          	mov    0x10(%rsp),%eax
  40169e:	69 c0 28 04 00 00    	imul   $0x428,%eax,%eax
  4016a4:	89 44 24 10          	mov    %eax,0x10(%rsp)
  4016a8:	8b 44 24 18          	mov    0x18(%rsp),%eax
  4016ac:	69 c0 d8 66 00 00    	imul   $0x66d8,%eax,%eax
  4016b2:	89 44 24 18          	mov    %eax,0x18(%rsp)
  4016b6:	8b 44 24 1c          	mov    0x1c(%rsp),%eax
  4016ba:	69 c0 5d d3 00 00    	imul   $0xd35d,%eax,%eax
  4016c0:	89 44 24 1c          	mov    %eax,0x1c(%rsp)
  4016c4:	8b 04 24             	mov    (%rsp),%eax
  4016c7:	69 c0 ce 0d 00 00    	imul   $0xdce,%eax,%eax
  4016cd:	89 04 24             	mov    %eax,(%rsp)
  4016d0:	8b 44 24 20          	mov    0x20(%rsp),%eax
  4016d4:	69 c0 79 1a 00 00    	imul   $0x1a79,%eax,%eax
  4016da:	89 44 24 20          	mov    %eax,0x20(%rsp)
  4016de:	8b 44 24 1c          	mov    0x1c(%rsp),%eax
  4016e2:	69 c0 3e d2 00 00    	imul   $0xd23e,%eax,%eax
  4016e8:	89 44 24 1c          	mov    %eax,0x1c(%rsp)
  4016ec:	8b 44 24 0c          	mov    0xc(%rsp),%eax
  4016f0:	69 c0 0f 1e 00 00    	imul   $0x1e0f,%eax,%eax
  4016f6:	89 44 24 0c          	mov    %eax,0xc(%rsp)
  4016fa:	8b 44 24 18          	mov    0x18(%rsp),%eax
  4016fe:	69 c0 72 d7 00 00    	imul   $0xd772,%eax,%eax
  401704:	89 44 24 18          	mov    %eax,0x18(%rsp)
  401708:	8b 44 24 18          	mov    0x18(%rsp),%eax
  40170c:	69 c0 33 da 00 00    	imul   $0xda33,%eax,%eax
  401712:	89 44 24 18          	mov    %eax,0x18(%rsp)
  401716:	8b 44 24 20          	mov    0x20(%rsp),%eax
  40171a:	69 c0 5d 0e 00 00    	imul   $0xe5d,%eax,%eax
  401720:	89 44 24 20          	mov    %eax,0x20(%rsp)
  401724:	8b 44 24 10          	mov    0x10(%rsp),%eax
  401728:	69 c0 4f 32 00 00    	imul   $0x324f,%eax,%eax
  40172e:	89 44 24 10          	mov    %eax,0x10(%rsp)
  401732:	8b 44 24 0c          	mov    0xc(%rsp),%eax
  401736:	69 c0 cc a1 00 00    	imul   $0xa1cc,%eax,%eax
  40173c:	89 44 24 0c          	mov    %eax,0xc(%rsp)
  401740:	8b 04 24             	mov    (%rsp),%eax
  401743:	69 c0 78 e3 00 00    	imul   $0xe378,%eax,%eax
  401749:	89 04 24             	mov    %eax,(%rsp)
  40174c:	8b 44 24 14          	mov    0x14(%rsp),%eax
  401750:	69 c0 04 9b 00 00    	imul   $0x9b04,%eax,%eax
  401756:	89 44 24 14          	mov    %eax,0x14(%rsp)
  40175a:	8b 44 24 10          	mov    0x10(%rsp),%eax
  40175e:	69 c0 fc 62 00 00    	imul   $0x62fc,%eax,%eax
  401764:	89 44 24 10          	mov    %eax,0x10(%rsp)
  401768:	8b 44 24 10          	mov    0x10(%rsp),%eax
  40176c:	69 c0 78 02 00 00    	imul   $0x278,%eax,%eax
  401772:	89 44 24 10          	mov    %eax,0x10(%rsp)
  401776:	8b 04 24             	mov    (%rsp),%eax
  401779:	69 c0 28 de 00 00    	imul   $0xde28,%eax,%eax
  40177f:	89 04 24             	mov    %eax,(%rsp)
  401782:	8b 44 24 1c          	mov    0x1c(%rsp),%eax
  401786:	69 c0 ca 9c 00 00    	imul   $0x9cca,%eax,%eax
  40178c:	89 44 24 1c          	mov    %eax,0x1c(%rsp)
  401790:	8b 04 24             	mov    (%rsp),%eax
  401793:	69 c0 36 02 00 00    	imul   $0x236,%eax,%eax
  401799:	89 04 24             	mov    %eax,(%rsp)
  40179c:	8b 44 24 1c          	mov    0x1c(%rsp),%eax
  4017a0:	69 c0 e2 36 00 00    	imul   $0x36e2,%eax,%eax
  4017a6:	89 44 24 1c          	mov    %eax,0x1c(%rsp)
  4017aa:	8b 44 24 18          	mov    0x18(%rsp),%eax
  4017ae:	69 c0 17 2c 00 00    	imul   $0x2c17,%eax,%eax
  4017b4:	89 44 24 18          	mov    %eax,0x18(%rsp)
  4017b8:	8b 04 24             	mov    (%rsp),%eax
  4017bb:	69 c0 78 7d 00 00    	imul   $0x7d78,%eax,%eax
  4017c1:	89 04 24             	mov    %eax,(%rsp)
  4017c4:	8b 44 24 10          	mov    0x10(%rsp),%eax
  4017c8:	69 c0 db c1 00 00    	imul   $0xc1db,%eax,%eax
  4017ce:	89 44 24 10          	mov    %eax,0x10(%rsp)
  4017d2:	8b 44 24 18          	mov    0x18(%rsp),%eax
  4017d6:	69 c0 4c c8 00 00    	imul   $0xc84c,%eax,%eax
  4017dc:	89 44 24 18          	mov    %eax,0x18(%rsp)
  4017e0:	8b 44 24 08          	mov    0x8(%rsp),%eax
  4017e4:	69 c0 00 94 00 00    	imul   $0x9400,%eax,%eax
  4017ea:	89 44 24 08          	mov    %eax,0x8(%rsp)
  4017ee:	8b 44 24 10          	mov    0x10(%rsp),%eax
  4017f2:	69 c0 12 a1 00 00    	imul   $0xa112,%eax,%eax
  4017f8:	89 44 24 10          	mov    %eax,0x10(%rsp)
  4017fc:	8b 44 24 0c          	mov    0xc(%rsp),%eax
  401800:	69 c0 ae 74 00 00    	imul   $0x74ae,%eax,%eax
  401806:	89 44 24 0c          	mov    %eax,0xc(%rsp)
  40180a:	8b 44 24 18          	mov    0x18(%rsp),%eax
  40180e:	69 c0 73 14 00 00    	imul   $0x1473,%eax,%eax
  401814:	89 44 24 18          	mov    %eax,0x18(%rsp)
  401818:	8b 44 24 24          	mov    0x24(%rsp),%eax
  40181c:	69 c0 81 55 00 00    	imul   $0x5581,%eax,%eax
  401822:	89 44 24 24          	mov    %eax,0x24(%rsp)
  401826:	8b 44 24 1c          	mov    0x1c(%rsp),%eax
  40182a:	69 c0 4b 46 00 00    	imul   $0x464b,%eax,%eax
  401830:	89 44 24 1c          	mov    %eax,0x1c(%rsp)
  401834:	8b 44 24 20          	mov    0x20(%rsp),%eax
  401838:	69 c0 53 ef 00 00    	imul   $0xef53,%eax,%eax
  40183e:	89 44 24 20          	mov    %eax,0x20(%rsp)
  401842:	8b 44 24 14          	mov    0x14(%rsp),%eax
  401846:	69 c0 a1 1f 00 00    	imul   $0x1fa1,%eax,%eax
  40184c:	89 44 24 14          	mov    %eax,0x14(%rsp)
  401850:	8b 44 24 18          	mov    0x18(%rsp),%eax
  401854:	69 c0 14 b2 00 00    	imul   $0xb214,%eax,%eax
  40185a:	89 44 24 18          	mov    %eax,0x18(%rsp)
  40185e:	8b 44 24 20          	mov    0x20(%rsp),%eax
  401862:	89 c2                	mov    %eax,%edx
  401864:	c1 e2 08             	shl    $0x8,%edx
  401867:	c1 e0 0f             	shl    $0xf,%eax
  40186a:	29 d0                	sub    %edx,%eax
  40186c:	89 44 24 20          	mov    %eax,0x20(%rsp)
  401870:	ba 00 00 00 00       	mov    $0x0,%edx
  401875:	b8 00 00 00 00       	mov    $0x0,%eax
  40187a:	eb 0a                	jmp    401886 <scramble+0x4f7>
  40187c:	89 d1                	mov    %edx,%ecx
  40187e:	8b 0c 8c             	mov    (%rsp,%rcx,4),%ecx
  401881:	01 c8                	add    %ecx,%eax
  401883:	83 c2 01             	add    $0x1,%edx
  401886:	83 fa 09             	cmp    $0x9,%edx
  401889:	76 f1                	jbe    40187c <scramble+0x4ed>
  40188b:	48 8b 74 24 28       	mov    0x28(%rsp),%rsi
  401890:	64 48 33 34 25 28 00 	xor    %fs:0x28,%rsi
  401897:	00 00 
  401899:	74 05                	je     4018a0 <scramble+0x511>
  40189b:	e8 50 f4 ff ff       	callq  400cf0 <__stack_chk_fail@plt>
  4018a0:	48 83 c4 38          	add    $0x38,%rsp
  4018a4:	c3                   	retq   

00000000004018a5 <getbuf>:
  4018a5:	48 83 ec 28          	sub    $0x28,%rsp
  4018a9:	48 89 e7             	mov    %rsp,%rdi
  4018ac:	e8 98 03 00 00       	callq  401c49 <Gets>
  4018b1:	b8 01 00 00 00       	mov    $0x1,%eax
  4018b6:	48 83 c4 28          	add    $0x28,%rsp
  4018ba:	c3                   	retq   

00000000004018bb <touch1>:
  4018bb:	48 83 ec 08          	sub    $0x8,%rsp
  4018bf:	c7 05 53 3c 20 00 01 	movl   $0x1,0x203c53(%rip)        # 60551c <vlevel>
  4018c6:	00 00 00 
  4018c9:	bf 82 34 40 00       	mov    $0x403482,%edi
  4018ce:	e8 fd f3 ff ff       	callq  400cd0 <puts@plt>
  4018d3:	bf 01 00 00 00       	mov    $0x1,%edi
  4018d8:	e8 b1 05 00 00       	callq  401e8e <validate>
  4018dd:	bf 00 00 00 00       	mov    $0x0,%edi
  4018e2:	e8 69 f5 ff ff       	callq  400e50 <exit@plt>

00000000004018e7 <touch2>:
  4018e7:	48 83 ec 08          	sub    $0x8,%rsp
  4018eb:	89 fa                	mov    %edi,%edx
  4018ed:	c7 05 25 3c 20 00 02 	movl   $0x2,0x203c25(%rip)        # 60551c <vlevel>
  4018f4:	00 00 00 
  4018f7:	39 3d 27 3c 20 00    	cmp    %edi,0x203c27(%rip)        # 605524 <cookie>
  4018fd:	75 20                	jne    40191f <touch2+0x38>
  4018ff:	be a8 34 40 00       	mov    $0x4034a8,%esi
  401904:	bf 01 00 00 00       	mov    $0x1,%edi
  401909:	b8 00 00 00 00       	mov    $0x0,%eax
  40190e:	e8 ed f4 ff ff       	callq  400e00 <__printf_chk@plt>
  401913:	bf 02 00 00 00       	mov    $0x2,%edi
  401918:	e8 71 05 00 00       	callq  401e8e <validate>
  40191d:	eb 1e                	jmp    40193d <touch2+0x56>
  40191f:	be d0 34 40 00       	mov    $0x4034d0,%esi
  401924:	bf 01 00 00 00       	mov    $0x1,%edi
  401929:	b8 00 00 00 00       	mov    $0x0,%eax
  40192e:	e8 cd f4 ff ff       	callq  400e00 <__printf_chk@plt>
  401933:	bf 02 00 00 00       	mov    $0x2,%edi
  401938:	e8 13 06 00 00       	callq  401f50 <fail>
  40193d:	bf 00 00 00 00       	mov    $0x0,%edi
  401942:	e8 09 f5 ff ff       	callq  400e50 <exit@plt>

0000000000401947 <hexmatch>:
  401947:	41 54                	push   %r12
  401949:	55                   	push   %rbp
  40194a:	53                   	push   %rbx
  40194b:	48 83 c4 80          	add    $0xffffffffffffff80,%rsp
  40194f:	89 fd                	mov    %edi,%ebp
  401951:	48 89 f3             	mov    %rsi,%rbx
  401954:	64 48 8b 04 25 28 00 	mov    %fs:0x28,%rax
  40195b:	00 00 
  40195d:	48 89 44 24 78       	mov    %rax,0x78(%rsp)
  401962:	31 c0                	xor    %eax,%eax
  401964:	e8 57 f4 ff ff       	callq  400dc0 <random@plt>
  401969:	48 89 c1             	mov    %rax,%rcx
  40196c:	48 ba 0b d7 a3 70 3d 	movabs $0xa3d70a3d70a3d70b,%rdx
  401973:	0a d7 a3 
  401976:	48 f7 ea             	imul   %rdx
  401979:	48 01 ca             	add    %rcx,%rdx
  40197c:	48 c1 fa 06          	sar    $0x6,%rdx
  401980:	48 89 c8             	mov    %rcx,%rax
  401983:	48 c1 f8 3f          	sar    $0x3f,%rax
  401987:	48 29 c2             	sub    %rax,%rdx
  40198a:	48 8d 04 92          	lea    (%rdx,%rdx,4),%rax
  40198e:	48 8d 14 80          	lea    (%rax,%rax,4),%rdx
  401992:	48 8d 04 95 00 00 00 	lea    0x0(,%rdx,4),%rax
  401999:	00 
  40199a:	48 29 c1             	sub    %rax,%rcx
  40199d:	4c 8d 24 0c          	lea    (%rsp,%rcx,1),%r12
  4019a1:	41 89 e8             	mov    %ebp,%r8d
  4019a4:	b9 9f 34 40 00       	mov    $0x40349f,%ecx
  4019a9:	48 c7 c2 ff ff ff ff 	mov    $0xffffffffffffffff,%rdx
  4019b0:	be 01 00 00 00       	mov    $0x1,%esi
  4019b5:	4c 89 e7             	mov    %r12,%rdi
  4019b8:	b8 00 00 00 00       	mov    $0x0,%eax
  4019bd:	e8 be f4 ff ff       	callq  400e80 <__sprintf_chk@plt>
  4019c2:	ba 09 00 00 00       	mov    $0x9,%edx
  4019c7:	4c 89 e6             	mov    %r12,%rsi
  4019ca:	48 89 df             	mov    %rbx,%rdi
  4019cd:	e8 de f2 ff ff       	callq  400cb0 <strncmp@plt>
  4019d2:	85 c0                	test   %eax,%eax
  4019d4:	0f 94 c0             	sete   %al
  4019d7:	48 8b 5c 24 78       	mov    0x78(%rsp),%rbx
  4019dc:	64 48 33 1c 25 28 00 	xor    %fs:0x28,%rbx
  4019e3:	00 00 
  4019e5:	74 05                	je     4019ec <hexmatch+0xa5>
  4019e7:	e8 04 f3 ff ff       	callq  400cf0 <__stack_chk_fail@plt>
  4019ec:	0f b6 c0             	movzbl %al,%eax
  4019ef:	48 83 ec 80          	sub    $0xffffffffffffff80,%rsp
  4019f3:	5b                   	pop    %rbx
  4019f4:	5d                   	pop    %rbp
  4019f5:	41 5c                	pop    %r12
  4019f7:	c3                   	retq   

00000000004019f8 <touch3>:
  4019f8:	53                   	push   %rbx
  4019f9:	48 89 fb             	mov    %rdi,%rbx
  4019fc:	c7 05 16 3b 20 00 03 	movl   $0x3,0x203b16(%rip)        # 60551c <vlevel>
  401a03:	00 00 00 
  401a06:	48 89 fe             	mov    %rdi,%rsi
  401a09:	8b 3d 15 3b 20 00    	mov    0x203b15(%rip),%edi        # 605524 <cookie>
  401a0f:	e8 33 ff ff ff       	callq  401947 <hexmatch>
  401a14:	85 c0                	test   %eax,%eax
  401a16:	74 23                	je     401a3b <touch3+0x43>
  401a18:	48 89 da             	mov    %rbx,%rdx
  401a1b:	be f8 34 40 00       	mov    $0x4034f8,%esi
  401a20:	bf 01 00 00 00       	mov    $0x1,%edi
  401a25:	b8 00 00 00 00       	mov    $0x0,%eax
  401a2a:	e8 d1 f3 ff ff       	callq  400e00 <__printf_chk@plt>
  401a2f:	bf 03 00 00 00       	mov    $0x3,%edi
  401a34:	e8 55 04 00 00       	callq  401e8e <validate>
  401a39:	eb 21                	jmp    401a5c <touch3+0x64>
  401a3b:	48 89 da             	mov    %rbx,%rdx
  401a3e:	be 20 35 40 00       	mov    $0x403520,%esi
  401a43:	bf 01 00 00 00       	mov    $0x1,%edi
  401a48:	b8 00 00 00 00       	mov    $0x0,%eax
  401a4d:	e8 ae f3 ff ff       	callq  400e00 <__printf_chk@plt>
  401a52:	bf 03 00 00 00       	mov    $0x3,%edi
  401a57:	e8 f4 04 00 00       	callq  401f50 <fail>
  401a5c:	bf 00 00 00 00       	mov    $0x0,%edi
  401a61:	e8 ea f3 ff ff       	callq  400e50 <exit@plt>

0000000000401a66 <test>:
  401a66:	48 83 ec 08          	sub    $0x8,%rsp
  401a6a:	b8 00 00 00 00       	mov    $0x0,%eax
  401a6f:	e8 31 fe ff ff       	callq  4018a5 <getbuf>
  401a74:	89 c2                	mov    %eax,%edx
  401a76:	be 48 35 40 00       	mov    $0x403548,%esi
  401a7b:	bf 01 00 00 00       	mov    $0x1,%edi
  401a80:	b8 00 00 00 00       	mov    $0x0,%eax
  401a85:	e8 76 f3 ff ff       	callq  400e00 <__printf_chk@plt>
  401a8a:	48 83 c4 08          	add    $0x8,%rsp
  401a8e:	c3                   	retq   

0000000000401a8f <start_farm>:
  401a8f:	b8 01 00 00 00       	mov    $0x1,%eax
  401a94:	c3                   	retq   

0000000000401a95 <setval_471>:
  401a95:	c7 07 52 d8 90 90    	movl   $0x9090d852,(%rdi)
  401a9b:	c3                   	retq   

0000000000401a9c <getval_222>:
  401a9c:	b8 68 89 c7 c3       	mov    $0xc3c78968,%eax
  401aa1:	c3                   	retq   

0000000000401aa2 <addval_277>:
  401aa2:	8d 87 36 58 c3 72    	lea    0x72c35836(%rdi),%eax
  401aa8:	c3                   	retq   

0000000000401aa9 <getval_466>:
  401aa9:	b8 48 89 c7 90       	mov    $0x90c78948,%eax
  401aae:	c3                   	retq   

0000000000401aaf <addval_408>:
  401aaf:	8d 87 48 8d c7 90    	lea    -0x6f3872b8(%rdi),%eax
  401ab5:	c3                   	retq   

0000000000401ab6 <getval_483>:
  401ab6:	b8 16 58 90 c3       	mov    $0xc3905816,%eax
  401abb:	c3                   	retq   

0000000000401abc <getval_310>:
  401abc:	b8 48 89 c7 90       	mov    $0x90c78948,%eax
  401ac1:	c3                   	retq   

0000000000401ac2 <setval_156>:
  401ac2:	c7 07 a1 58 91 90    	movl   $0x909158a1,(%rdi)
  401ac8:	c3                   	retq   

0000000000401ac9 <mid_farm>:
  401ac9:	b8 01 00 00 00       	mov    $0x1,%eax
  401ace:	c3                   	retq   

0000000000401acf <add_xy>:
  401acf:	48 8d 04 37          	lea    (%rdi,%rsi,1),%rax
  401ad3:	c3                   	retq   

0000000000401ad4 <addval_452>:
  401ad4:	8d 87 8d c2 20 c0    	lea    -0x3fdf3d73(%rdi),%eax
  401ada:	c3                   	retq   

0000000000401adb <getval_271>:
  401adb:	b8 48 88 e0 c3       	mov    $0xc3e08848,%eax
  401ae0:	c3                   	retq   

0000000000401ae1 <setval_432>:
  401ae1:	c7 07 09 c2 20 d2    	movl   $0xd220c209,(%rdi)
  401ae7:	c3                   	retq   

0000000000401ae8 <getval_331>:
  401ae8:	b8 48 89 e0 94       	mov    $0x94e08948,%eax
  401aed:	c3                   	retq   

0000000000401aee <addval_168>:
  401aee:	8d 87 89 ce 28 c9    	lea    -0x36d73177(%rdi),%eax
  401af4:	c3                   	retq   

0000000000401af5 <getval_161>:
  401af5:	b8 48 89 e0 c3       	mov    $0xc3e08948,%eax
  401afa:	c3                   	retq   

0000000000401afb <getval_424>:
  401afb:	b8 89 d1 08 d2       	mov    $0xd208d189,%eax
  401b00:	c3                   	retq   

0000000000401b01 <addval_413>:
  401b01:	8d 87 89 c2 08 c0    	lea    -0x3ff73d77(%rdi),%eax
  401b07:	c3                   	retq   

0000000000401b08 <getval_340>:
  401b08:	b8 89 c2 18 c9       	mov    $0xc918c289,%eax
  401b0d:	c3                   	retq   

0000000000401b0e <getval_322>:
  401b0e:	b8 89 c2 78 d2       	mov    $0xd278c289,%eax
  401b13:	c3                   	retq   

0000000000401b14 <getval_453>:
  401b14:	b8 89 d1 a4 d2       	mov    $0xd2a4d189,%eax
  401b19:	c3                   	retq   

0000000000401b1a <getval_368>:
  401b1a:	b8 a9 89 ce c7       	mov    $0xc7ce89a9,%eax
  401b1f:	c3                   	retq   

0000000000401b20 <addval_386>:
  401b20:	8d 87 89 ce 00 d2    	lea    -0x2dff3177(%rdi),%eax
  401b26:	c3                   	retq   

0000000000401b27 <getval_491>:
  401b27:	b8 89 c2 84 d2       	mov    $0xd284c289,%eax
  401b2c:	c3                   	retq   

0000000000401b2d <getval_414>:
  401b2d:	b8 48 89 e0 92       	mov    $0x92e08948,%eax
  401b32:	c3                   	retq   

0000000000401b33 <getval_112>:
  401b33:	b8 89 d1 91 c3       	mov    $0xc391d189,%eax
  401b38:	c3                   	retq   

0000000000401b39 <addval_416>:
  401b39:	8d 87 08 89 ce c3    	lea    -0x3c3176f8(%rdi),%eax
  401b3f:	c3                   	retq   

0000000000401b40 <getval_446>:
  401b40:	b8 48 89 e0 c7       	mov    $0xc7e08948,%eax
  401b45:	c3                   	retq   

0000000000401b46 <setval_330>:
  401b46:	c7 07 8b ce 20 db    	movl   $0xdb20ce8b,(%rdi)
  401b4c:	c3                   	retq   

0000000000401b4d <setval_260>:
  401b4d:	c7 07 4c 89 e0 c3    	movl   $0xc3e0894c,(%rdi)
  401b53:	c3                   	retq   

0000000000401b54 <getval_227>:
  401b54:	b8 09 c2 90 c3       	mov    $0xc390c209,%eax
  401b59:	c3                   	retq   

0000000000401b5a <addval_144>:
  401b5a:	8d 87 3c 3d 99 ce    	lea    -0x3166c2c4(%rdi),%eax
  401b60:	c3                   	retq   

0000000000401b61 <setval_324>:
  401b61:	c7 07 48 89 e0 90    	movl   $0x90e08948,(%rdi)
  401b67:	c3                   	retq   

0000000000401b68 <getval_116>:
  401b68:	b8 89 ce 08 d2       	mov    $0xd208ce89,%eax
  401b6d:	c3                   	retq   

0000000000401b6e <setval_499>:
  401b6e:	c7 07 48 89 e0 c1    	movl   $0xc1e08948,(%rdi)
  401b74:	c3                   	retq   

0000000000401b75 <setval_339>:
  401b75:	c7 07 99 d1 38 d2    	movl   $0xd238d199,(%rdi)
  401b7b:	c3                   	retq   

0000000000401b7c <addval_130>:
  401b7c:	8d 87 89 d1 60 db    	lea    -0x249f2e77(%rdi),%eax
  401b82:	c3                   	retq   

0000000000401b83 <setval_253>:
  401b83:	c7 07 89 d1 90 c3    	movl   $0xc390d189,(%rdi)
  401b89:	c3                   	retq   

0000000000401b8a <getval_338>:
  401b8a:	b8 8d d1 38 d2       	mov    $0xd238d18d,%eax
  401b8f:	c3                   	retq   

0000000000401b90 <getval_328>:
  401b90:	b8 09 c2 38 d2       	mov    $0xd238c209,%eax
  401b95:	c3                   	retq   

0000000000401b96 <getval_128>:
  401b96:	b8 81 d1 08 db       	mov    $0xdb08d181,%eax
  401b9b:	c3                   	retq   

0000000000401b9c <setval_233>:
  401b9c:	c7 07 88 ce 84 c9    	movl   $0xc984ce88,(%rdi)
  401ba2:	c3                   	retq   

0000000000401ba3 <end_farm>:
  401ba3:	b8 01 00 00 00       	mov    $0x1,%eax
  401ba8:	c3                   	retq   

0000000000401ba9 <save_char>:
  401ba9:	8b 05 95 45 20 00    	mov    0x204595(%rip),%eax        # 606144 <gets_cnt>
  401baf:	3d ff 03 00 00       	cmp    $0x3ff,%eax
  401bb4:	7f 49                	jg     401bff <save_char+0x56>
  401bb6:	8d 14 40             	lea    (%rax,%rax,2),%edx
  401bb9:	89 f9                	mov    %edi,%ecx
  401bbb:	c0 e9 04             	shr    $0x4,%cl
  401bbe:	83 e1 0f             	and    $0xf,%ecx
  401bc1:	0f b6 b1 70 38 40 00 	movzbl 0x403870(%rcx),%esi
  401bc8:	48 63 ca             	movslq %edx,%rcx
  401bcb:	40 88 b1 40 55 60 00 	mov    %sil,0x605540(%rcx)
  401bd2:	8d 4a 01             	lea    0x1(%rdx),%ecx
  401bd5:	83 e7 0f             	and    $0xf,%edi
  401bd8:	0f b6 b7 70 38 40 00 	movzbl 0x403870(%rdi),%esi
  401bdf:	48 63 c9             	movslq %ecx,%rcx
  401be2:	40 88 b1 40 55 60 00 	mov    %sil,0x605540(%rcx)
  401be9:	83 c2 02             	add    $0x2,%edx
  401bec:	48 63 d2             	movslq %edx,%rdx
  401bef:	c6 82 40 55 60 00 20 	movb   $0x20,0x605540(%rdx)
  401bf6:	83 c0 01             	add    $0x1,%eax
  401bf9:	89 05 45 45 20 00    	mov    %eax,0x204545(%rip)        # 606144 <gets_cnt>
  401bff:	f3 c3                	repz retq 

0000000000401c01 <save_term>:
  401c01:	8b 05 3d 45 20 00    	mov    0x20453d(%rip),%eax        # 606144 <gets_cnt>
  401c07:	8d 04 40             	lea    (%rax,%rax,2),%eax
  401c0a:	48 98                	cltq   
  401c0c:	c6 80 40 55 60 00 00 	movb   $0x0,0x605540(%rax)
  401c13:	c3                   	retq   

0000000000401c14 <check_fail>:
  401c14:	48 83 ec 08          	sub    $0x8,%rsp
  401c18:	0f be 15 29 45 20 00 	movsbl 0x204529(%rip),%edx        # 606148 <target_prefix>
  401c1f:	41 b8 40 55 60 00    	mov    $0x605540,%r8d
  401c25:	8b 0d ed 38 20 00    	mov    0x2038ed(%rip),%ecx        # 605518 <check_level>
  401c2b:	be 6b 35 40 00       	mov    $0x40356b,%esi
  401c30:	bf 01 00 00 00       	mov    $0x1,%edi
  401c35:	b8 00 00 00 00       	mov    $0x0,%eax
  401c3a:	e8 c1 f1 ff ff       	callq  400e00 <__printf_chk@plt>
  401c3f:	bf 01 00 00 00       	mov    $0x1,%edi
  401c44:	e8 07 f2 ff ff       	callq  400e50 <exit@plt>

0000000000401c49 <Gets>:
  401c49:	41 54                	push   %r12
  401c4b:	55                   	push   %rbp
  401c4c:	53                   	push   %rbx
  401c4d:	49 89 fc             	mov    %rdi,%r12
  401c50:	c7 05 ea 44 20 00 00 	movl   $0x0,0x2044ea(%rip)        # 606144 <gets_cnt>
  401c57:	00 00 00 
  401c5a:	48 89 fb             	mov    %rdi,%rbx
  401c5d:	eb 11                	jmp    401c70 <Gets+0x27>
  401c5f:	48 8d 6b 01          	lea    0x1(%rbx),%rbp
  401c63:	88 03                	mov    %al,(%rbx)
  401c65:	0f b6 f8             	movzbl %al,%edi
  401c68:	e8 3c ff ff ff       	callq  401ba9 <save_char>
  401c6d:	48 89 eb             	mov    %rbp,%rbx
  401c70:	48 8b 3d 99 38 20 00 	mov    0x203899(%rip),%rdi        # 605510 <infile>
  401c77:	e8 54 f1 ff ff       	callq  400dd0 <_IO_getc@plt>
  401c7c:	83 f8 ff             	cmp    $0xffffffff,%eax
  401c7f:	74 05                	je     401c86 <Gets+0x3d>
  401c81:	83 f8 0a             	cmp    $0xa,%eax
  401c84:	75 d9                	jne    401c5f <Gets+0x16>
  401c86:	c6 03 00             	movb   $0x0,(%rbx)
  401c89:	b8 00 00 00 00       	mov    $0x0,%eax
  401c8e:	e8 6e ff ff ff       	callq  401c01 <save_term>
  401c93:	4c 89 e0             	mov    %r12,%rax
  401c96:	5b                   	pop    %rbx
  401c97:	5d                   	pop    %rbp
  401c98:	41 5c                	pop    %r12
  401c9a:	c3                   	retq   

0000000000401c9b <notify_server>:
  401c9b:	53                   	push   %rbx
  401c9c:	48 81 ec 10 40 00 00 	sub    $0x4010,%rsp
  401ca3:	64 48 8b 04 25 28 00 	mov    %fs:0x28,%rax
  401caa:	00 00 
  401cac:	48 89 84 24 08 40 00 	mov    %rax,0x4008(%rsp)
  401cb3:	00 
  401cb4:	31 c0                	xor    %eax,%eax
  401cb6:	83 3d 6b 38 20 00 00 	cmpl   $0x0,0x20386b(%rip)        # 605528 <is_checker>
  401cbd:	0f 85 aa 01 00 00    	jne    401e6d <notify_server+0x1d2>
  401cc3:	89 fb                	mov    %edi,%ebx
  401cc5:	8b 05 79 44 20 00    	mov    0x204479(%rip),%eax        # 606144 <gets_cnt>
  401ccb:	83 c0 64             	add    $0x64,%eax
  401cce:	3d 00 20 00 00       	cmp    $0x2000,%eax
  401cd3:	7e 1e                	jle    401cf3 <notify_server+0x58>
  401cd5:	be a0 36 40 00       	mov    $0x4036a0,%esi
  401cda:	bf 01 00 00 00       	mov    $0x1,%edi
  401cdf:	b8 00 00 00 00       	mov    $0x0,%eax
  401ce4:	e8 17 f1 ff ff       	callq  400e00 <__printf_chk@plt>
  401ce9:	bf 01 00 00 00       	mov    $0x1,%edi
  401cee:	e8 5d f1 ff ff       	callq  400e50 <exit@plt>
  401cf3:	0f be 05 4e 44 20 00 	movsbl 0x20444e(%rip),%eax        # 606148 <target_prefix>
  401cfa:	83 3d a7 37 20 00 00 	cmpl   $0x0,0x2037a7(%rip)        # 6054a8 <notify>
  401d01:	74 08                	je     401d0b <notify_server+0x70>
  401d03:	8b 15 17 38 20 00    	mov    0x203817(%rip),%edx        # 605520 <authkey>
  401d09:	eb 05                	jmp    401d10 <notify_server+0x75>
  401d0b:	ba ff ff ff ff       	mov    $0xffffffff,%edx
  401d10:	85 db                	test   %ebx,%ebx
  401d12:	74 08                	je     401d1c <notify_server+0x81>
  401d14:	41 b9 81 35 40 00    	mov    $0x403581,%r9d
  401d1a:	eb 06                	jmp    401d22 <notify_server+0x87>
  401d1c:	41 b9 86 35 40 00    	mov    $0x403586,%r9d
  401d22:	68 40 55 60 00       	pushq  $0x605540
  401d27:	56                   	push   %rsi
  401d28:	50                   	push   %rax
  401d29:	52                   	push   %rdx
  401d2a:	44 8b 05 37 34 20 00 	mov    0x203437(%rip),%r8d        # 605168 <target_id>
  401d31:	b9 8b 35 40 00       	mov    $0x40358b,%ecx
  401d36:	ba 00 20 00 00       	mov    $0x2000,%edx
  401d3b:	be 01 00 00 00       	mov    $0x1,%esi
  401d40:	48 8d 7c 24 20       	lea    0x20(%rsp),%rdi
  401d45:	b8 00 00 00 00       	mov    $0x0,%eax
  401d4a:	e8 31 f1 ff ff       	callq  400e80 <__sprintf_chk@plt>
  401d4f:	48 83 c4 20          	add    $0x20,%rsp
  401d53:	83 3d 4e 37 20 00 00 	cmpl   $0x0,0x20374e(%rip)        # 6054a8 <notify>
  401d5a:	0f 84 81 00 00 00    	je     401de1 <notify_server+0x146>
  401d60:	85 db                	test   %ebx,%ebx
  401d62:	74 6e                	je     401dd2 <notify_server+0x137>
  401d64:	4c 8d 8c 24 00 20 00 	lea    0x2000(%rsp),%r9
  401d6b:	00 
  401d6c:	41 b8 00 00 00 00    	mov    $0x0,%r8d
  401d72:	48 89 e1             	mov    %rsp,%rcx
  401d75:	48 8b 15 f4 33 20 00 	mov    0x2033f4(%rip),%rdx        # 605170 <lab>
  401d7c:	48 8b 35 f5 33 20 00 	mov    0x2033f5(%rip),%rsi        # 605178 <course>
  401d83:	48 8b 3d d6 33 20 00 	mov    0x2033d6(%rip),%rdi        # 605160 <user_id>
  401d8a:	e8 ef 10 00 00       	callq  402e7e <driver_post>
  401d8f:	85 c0                	test   %eax,%eax
  401d91:	79 26                	jns    401db9 <notify_server+0x11e>
  401d93:	48 8d 94 24 00 20 00 	lea    0x2000(%rsp),%rdx
  401d9a:	00 
  401d9b:	be a7 35 40 00       	mov    $0x4035a7,%esi
  401da0:	bf 01 00 00 00       	mov    $0x1,%edi
  401da5:	b8 00 00 00 00       	mov    $0x0,%eax
  401daa:	e8 51 f0 ff ff       	callq  400e00 <__printf_chk@plt>
  401daf:	bf 01 00 00 00       	mov    $0x1,%edi
  401db4:	e8 97 f0 ff ff       	callq  400e50 <exit@plt>
  401db9:	bf d0 36 40 00       	mov    $0x4036d0,%edi
  401dbe:	e8 0d ef ff ff       	callq  400cd0 <puts@plt>
  401dc3:	bf b3 35 40 00       	mov    $0x4035b3,%edi
  401dc8:	e8 03 ef ff ff       	callq  400cd0 <puts@plt>
  401dcd:	e9 9b 00 00 00       	jmpq   401e6d <notify_server+0x1d2>
  401dd2:	bf bd 35 40 00       	mov    $0x4035bd,%edi
  401dd7:	e8 f4 ee ff ff       	callq  400cd0 <puts@plt>
  401ddc:	e9 8c 00 00 00       	jmpq   401e6d <notify_server+0x1d2>
  401de1:	85 db                	test   %ebx,%ebx
  401de3:	74 07                	je     401dec <notify_server+0x151>
  401de5:	ba 81 35 40 00       	mov    $0x403581,%edx
  401dea:	eb 05                	jmp    401df1 <notify_server+0x156>
  401dec:	ba 86 35 40 00       	mov    $0x403586,%edx
  401df1:	be 08 37 40 00       	mov    $0x403708,%esi
  401df6:	bf 01 00 00 00       	mov    $0x1,%edi
  401dfb:	b8 00 00 00 00       	mov    $0x0,%eax
  401e00:	e8 fb ef ff ff       	callq  400e00 <__printf_chk@plt>
  401e05:	48 8b 15 54 33 20 00 	mov    0x203354(%rip),%rdx        # 605160 <user_id>
  401e0c:	be c4 35 40 00       	mov    $0x4035c4,%esi
  401e11:	bf 01 00 00 00       	mov    $0x1,%edi
  401e16:	b8 00 00 00 00       	mov    $0x0,%eax
  401e1b:	e8 e0 ef ff ff       	callq  400e00 <__printf_chk@plt>
  401e20:	48 8b 15 51 33 20 00 	mov    0x203351(%rip),%rdx        # 605178 <course>
  401e27:	be d1 35 40 00       	mov    $0x4035d1,%esi
  401e2c:	bf 01 00 00 00       	mov    $0x1,%edi
  401e31:	b8 00 00 00 00       	mov    $0x0,%eax
  401e36:	e8 c5 ef ff ff       	callq  400e00 <__printf_chk@plt>
  401e3b:	48 8b 15 2e 33 20 00 	mov    0x20332e(%rip),%rdx        # 605170 <lab>
  401e42:	be dd 35 40 00       	mov    $0x4035dd,%esi
  401e47:	bf 01 00 00 00       	mov    $0x1,%edi
  401e4c:	b8 00 00 00 00       	mov    $0x0,%eax
  401e51:	e8 aa ef ff ff       	callq  400e00 <__printf_chk@plt>
  401e56:	48 89 e2             	mov    %rsp,%rdx
  401e59:	be e6 35 40 00       	mov    $0x4035e6,%esi
  401e5e:	bf 01 00 00 00       	mov    $0x1,%edi
  401e63:	b8 00 00 00 00       	mov    $0x0,%eax
  401e68:	e8 93 ef ff ff       	callq  400e00 <__printf_chk@plt>
  401e6d:	48 8b 84 24 08 40 00 	mov    0x4008(%rsp),%rax
  401e74:	00 
  401e75:	64 48 33 04 25 28 00 	xor    %fs:0x28,%rax
  401e7c:	00 00 
  401e7e:	74 05                	je     401e85 <notify_server+0x1ea>
  401e80:	e8 6b ee ff ff       	callq  400cf0 <__stack_chk_fail@plt>
  401e85:	48 81 c4 10 40 00 00 	add    $0x4010,%rsp
  401e8c:	5b                   	pop    %rbx
  401e8d:	c3                   	retq   

0000000000401e8e <validate>:
  401e8e:	53                   	push   %rbx
  401e8f:	89 fb                	mov    %edi,%ebx
  401e91:	83 3d 90 36 20 00 00 	cmpl   $0x0,0x203690(%rip)        # 605528 <is_checker>
  401e98:	74 6b                	je     401f05 <validate+0x77>
  401e9a:	39 3d 7c 36 20 00    	cmp    %edi,0x20367c(%rip)        # 60551c <vlevel>
  401ea0:	74 14                	je     401eb6 <validate+0x28>
  401ea2:	bf f2 35 40 00       	mov    $0x4035f2,%edi
  401ea7:	e8 24 ee ff ff       	callq  400cd0 <puts@plt>
  401eac:	b8 00 00 00 00       	mov    $0x0,%eax
  401eb1:	e8 5e fd ff ff       	callq  401c14 <check_fail>
  401eb6:	8b 15 5c 36 20 00    	mov    0x20365c(%rip),%edx        # 605518 <check_level>
  401ebc:	39 d7                	cmp    %edx,%edi
  401ebe:	74 20                	je     401ee0 <validate+0x52>
  401ec0:	89 f9                	mov    %edi,%ecx
  401ec2:	be 30 37 40 00       	mov    $0x403730,%esi
  401ec7:	bf 01 00 00 00       	mov    $0x1,%edi
  401ecc:	b8 00 00 00 00       	mov    $0x0,%eax
  401ed1:	e8 2a ef ff ff       	callq  400e00 <__printf_chk@plt>
  401ed6:	b8 00 00 00 00       	mov    $0x0,%eax
  401edb:	e8 34 fd ff ff       	callq  401c14 <check_fail>
  401ee0:	0f be 15 61 42 20 00 	movsbl 0x204261(%rip),%edx        # 606148 <target_prefix>
  401ee7:	41 b8 40 55 60 00    	mov    $0x605540,%r8d
  401eed:	89 f9                	mov    %edi,%ecx
  401eef:	be 10 36 40 00       	mov    $0x403610,%esi
  401ef4:	bf 01 00 00 00       	mov    $0x1,%edi
  401ef9:	b8 00 00 00 00       	mov    $0x0,%eax
  401efe:	e8 fd ee ff ff       	callq  400e00 <__printf_chk@plt>
  401f03:	eb 49                	jmp    401f4e <validate+0xc0>
  401f05:	3b 3d 11 36 20 00    	cmp    0x203611(%rip),%edi        # 60551c <vlevel>
  401f0b:	74 18                	je     401f25 <validate+0x97>
  401f0d:	bf f2 35 40 00       	mov    $0x4035f2,%edi
  401f12:	e8 b9 ed ff ff       	callq  400cd0 <puts@plt>
  401f17:	89 de                	mov    %ebx,%esi
  401f19:	bf 00 00 00 00       	mov    $0x0,%edi
  401f1e:	e8 78 fd ff ff       	callq  401c9b <notify_server>
  401f23:	eb 29                	jmp    401f4e <validate+0xc0>
  401f25:	0f be 0d 1c 42 20 00 	movsbl 0x20421c(%rip),%ecx        # 606148 <target_prefix>
  401f2c:	89 fa                	mov    %edi,%edx
  401f2e:	be 58 37 40 00       	mov    $0x403758,%esi
  401f33:	bf 01 00 00 00       	mov    $0x1,%edi
  401f38:	b8 00 00 00 00       	mov    $0x0,%eax
  401f3d:	e8 be ee ff ff       	callq  400e00 <__printf_chk@plt>
  401f42:	89 de                	mov    %ebx,%esi
  401f44:	bf 01 00 00 00       	mov    $0x1,%edi
  401f49:	e8 4d fd ff ff       	callq  401c9b <notify_server>
  401f4e:	5b                   	pop    %rbx
  401f4f:	c3                   	retq   

0000000000401f50 <fail>:
  401f50:	48 83 ec 08          	sub    $0x8,%rsp
  401f54:	83 3d cd 35 20 00 00 	cmpl   $0x0,0x2035cd(%rip)        # 605528 <is_checker>
  401f5b:	74 0a                	je     401f67 <fail+0x17>
  401f5d:	b8 00 00 00 00       	mov    $0x0,%eax
  401f62:	e8 ad fc ff ff       	callq  401c14 <check_fail>
  401f67:	89 fe                	mov    %edi,%esi
  401f69:	bf 00 00 00 00       	mov    $0x0,%edi
  401f6e:	e8 28 fd ff ff       	callq  401c9b <notify_server>
  401f73:	48 83 c4 08          	add    $0x8,%rsp
  401f77:	c3                   	retq   

0000000000401f78 <bushandler>:
  401f78:	48 83 ec 08          	sub    $0x8,%rsp
  401f7c:	83 3d a5 35 20 00 00 	cmpl   $0x0,0x2035a5(%rip)        # 605528 <is_checker>
  401f83:	74 14                	je     401f99 <bushandler+0x21>
  401f85:	bf 25 36 40 00       	mov    $0x403625,%edi
  401f8a:	e8 41 ed ff ff       	callq  400cd0 <puts@plt>
  401f8f:	b8 00 00 00 00       	mov    $0x0,%eax
  401f94:	e8 7b fc ff ff       	callq  401c14 <check_fail>
  401f99:	bf 90 37 40 00       	mov    $0x403790,%edi
  401f9e:	e8 2d ed ff ff       	callq  400cd0 <puts@plt>
  401fa3:	bf 2f 36 40 00       	mov    $0x40362f,%edi
  401fa8:	e8 23 ed ff ff       	callq  400cd0 <puts@plt>
  401fad:	be 00 00 00 00       	mov    $0x0,%esi
  401fb2:	bf 00 00 00 00       	mov    $0x0,%edi
  401fb7:	e8 df fc ff ff       	callq  401c9b <notify_server>
  401fbc:	bf 01 00 00 00       	mov    $0x1,%edi
  401fc1:	e8 8a ee ff ff       	callq  400e50 <exit@plt>

0000000000401fc6 <seghandler>:
  401fc6:	48 83 ec 08          	sub    $0x8,%rsp
  401fca:	83 3d 57 35 20 00 00 	cmpl   $0x0,0x203557(%rip)        # 605528 <is_checker>
  401fd1:	74 14                	je     401fe7 <seghandler+0x21>
  401fd3:	bf 45 36 40 00       	mov    $0x403645,%edi
  401fd8:	e8 f3 ec ff ff       	callq  400cd0 <puts@plt>
  401fdd:	b8 00 00 00 00       	mov    $0x0,%eax
  401fe2:	e8 2d fc ff ff       	callq  401c14 <check_fail>
  401fe7:	bf b0 37 40 00       	mov    $0x4037b0,%edi
  401fec:	e8 df ec ff ff       	callq  400cd0 <puts@plt>
  401ff1:	bf 2f 36 40 00       	mov    $0x40362f,%edi
  401ff6:	e8 d5 ec ff ff       	callq  400cd0 <puts@plt>
  401ffb:	be 00 00 00 00       	mov    $0x0,%esi
  402000:	bf 00 00 00 00       	mov    $0x0,%edi
  402005:	e8 91 fc ff ff       	callq  401c9b <notify_server>
  40200a:	bf 01 00 00 00       	mov    $0x1,%edi
  40200f:	e8 3c ee ff ff       	callq  400e50 <exit@plt>

0000000000402014 <illegalhandler>:
  402014:	48 83 ec 08          	sub    $0x8,%rsp
  402018:	83 3d 09 35 20 00 00 	cmpl   $0x0,0x203509(%rip)        # 605528 <is_checker>
  40201f:	74 14                	je     402035 <illegalhandler+0x21>
  402021:	bf 58 36 40 00       	mov    $0x403658,%edi
  402026:	e8 a5 ec ff ff       	callq  400cd0 <puts@plt>
  40202b:	b8 00 00 00 00       	mov    $0x0,%eax
  402030:	e8 df fb ff ff       	callq  401c14 <check_fail>
  402035:	bf d8 37 40 00       	mov    $0x4037d8,%edi
  40203a:	e8 91 ec ff ff       	callq  400cd0 <puts@plt>
  40203f:	bf 2f 36 40 00       	mov    $0x40362f,%edi
  402044:	e8 87 ec ff ff       	callq  400cd0 <puts@plt>
  402049:	be 00 00 00 00       	mov    $0x0,%esi
  40204e:	bf 00 00 00 00       	mov    $0x0,%edi
  402053:	e8 43 fc ff ff       	callq  401c9b <notify_server>
  402058:	bf 01 00 00 00       	mov    $0x1,%edi
  40205d:	e8 ee ed ff ff       	callq  400e50 <exit@plt>

0000000000402062 <sigalrmhandler>:
  402062:	48 83 ec 08          	sub    $0x8,%rsp
  402066:	83 3d bb 34 20 00 00 	cmpl   $0x0,0x2034bb(%rip)        # 605528 <is_checker>
  40206d:	74 14                	je     402083 <sigalrmhandler+0x21>
  40206f:	bf 6c 36 40 00       	mov    $0x40366c,%edi
  402074:	e8 57 ec ff ff       	callq  400cd0 <puts@plt>
  402079:	b8 00 00 00 00       	mov    $0x0,%eax
  40207e:	e8 91 fb ff ff       	callq  401c14 <check_fail>
  402083:	ba 05 00 00 00       	mov    $0x5,%edx
  402088:	be 08 38 40 00       	mov    $0x403808,%esi
  40208d:	bf 01 00 00 00       	mov    $0x1,%edi
  402092:	b8 00 00 00 00       	mov    $0x0,%eax
  402097:	e8 64 ed ff ff       	callq  400e00 <__printf_chk@plt>
  40209c:	be 00 00 00 00       	mov    $0x0,%esi
  4020a1:	bf 00 00 00 00       	mov    $0x0,%edi
  4020a6:	e8 f0 fb ff ff       	callq  401c9b <notify_server>
  4020ab:	bf 01 00 00 00       	mov    $0x1,%edi
  4020b0:	e8 9b ed ff ff       	callq  400e50 <exit@plt>

00000000004020b5 <launch>:
  4020b5:	55                   	push   %rbp
  4020b6:	48 89 e5             	mov    %rsp,%rbp
  4020b9:	48 83 ec 10          	sub    $0x10,%rsp
  4020bd:	48 89 fa             	mov    %rdi,%rdx
  4020c0:	64 48 8b 04 25 28 00 	mov    %fs:0x28,%rax
  4020c7:	00 00 
  4020c9:	48 89 45 f8          	mov    %rax,-0x8(%rbp)
  4020cd:	31 c0                	xor    %eax,%eax
  4020cf:	48 8d 47 1e          	lea    0x1e(%rdi),%rax
  4020d3:	48 83 e0 f0          	and    $0xfffffffffffffff0,%rax
  4020d7:	48 29 c4             	sub    %rax,%rsp
  4020da:	48 8d 7c 24 0f       	lea    0xf(%rsp),%rdi
  4020df:	48 83 e7 f0          	and    $0xfffffffffffffff0,%rdi
  4020e3:	be f4 00 00 00       	mov    $0xf4,%esi
  4020e8:	e8 23 ec ff ff       	callq  400d10 <memset@plt>
  4020ed:	48 8b 05 cc 33 20 00 	mov    0x2033cc(%rip),%rax        # 6054c0 <stdin@@GLIBC_2.2.5>
  4020f4:	48 39 05 15 34 20 00 	cmp    %rax,0x203415(%rip)        # 605510 <infile>
  4020fb:	75 14                	jne    402111 <launch+0x5c>
  4020fd:	be 74 36 40 00       	mov    $0x403674,%esi
  402102:	bf 01 00 00 00       	mov    $0x1,%edi
  402107:	b8 00 00 00 00       	mov    $0x0,%eax
  40210c:	e8 ef ec ff ff       	callq  400e00 <__printf_chk@plt>
  402111:	c7 05 01 34 20 00 00 	movl   $0x0,0x203401(%rip)        # 60551c <vlevel>
  402118:	00 00 00 
  40211b:	b8 00 00 00 00       	mov    $0x0,%eax
  402120:	e8 41 f9 ff ff       	callq  401a66 <test>
  402125:	83 3d fc 33 20 00 00 	cmpl   $0x0,0x2033fc(%rip)        # 605528 <is_checker>
  40212c:	74 14                	je     402142 <launch+0x8d>
  40212e:	bf 81 36 40 00       	mov    $0x403681,%edi
  402133:	e8 98 eb ff ff       	callq  400cd0 <puts@plt>
  402138:	b8 00 00 00 00       	mov    $0x0,%eax
  40213d:	e8 d2 fa ff ff       	callq  401c14 <check_fail>
  402142:	bf 8c 36 40 00       	mov    $0x40368c,%edi
  402147:	e8 84 eb ff ff       	callq  400cd0 <puts@plt>
  40214c:	48 8b 45 f8          	mov    -0x8(%rbp),%rax
  402150:	64 48 33 04 25 28 00 	xor    %fs:0x28,%rax
  402157:	00 00 
  402159:	74 05                	je     402160 <launch+0xab>
  40215b:	e8 90 eb ff ff       	callq  400cf0 <__stack_chk_fail@plt>
  402160:	c9                   	leaveq 
  402161:	c3                   	retq   

0000000000402162 <stable_launch>:
  402162:	53                   	push   %rbx
  402163:	48 89 3d 9e 33 20 00 	mov    %rdi,0x20339e(%rip)        # 605508 <global_offset>
  40216a:	41 b9 00 00 00 00    	mov    $0x0,%r9d
  402170:	41 b8 00 00 00 00    	mov    $0x0,%r8d
  402176:	b9 32 01 00 00       	mov    $0x132,%ecx
  40217b:	ba 07 00 00 00       	mov    $0x7,%edx
  402180:	be 00 00 10 00       	mov    $0x100000,%esi
  402185:	bf 00 60 58 55       	mov    $0x55586000,%edi
  40218a:	e8 71 eb ff ff       	callq  400d00 <mmap@plt>
  40218f:	48 89 c3             	mov    %rax,%rbx
  402192:	48 3d 00 60 58 55    	cmp    $0x55586000,%rax
  402198:	74 37                	je     4021d1 <stable_launch+0x6f>
  40219a:	be 00 00 10 00       	mov    $0x100000,%esi
  40219f:	48 89 c7             	mov    %rax,%rdi
  4021a2:	e8 49 ec ff ff       	callq  400df0 <munmap@plt>
  4021a7:	b9 00 60 58 55       	mov    $0x55586000,%ecx
  4021ac:	ba 40 38 40 00       	mov    $0x403840,%edx
  4021b1:	be 01 00 00 00       	mov    $0x1,%esi
  4021b6:	48 8b 3d 23 33 20 00 	mov    0x203323(%rip),%rdi        # 6054e0 <stderr@@GLIBC_2.2.5>
  4021bd:	b8 00 00 00 00       	mov    $0x0,%eax
  4021c2:	e8 a9 ec ff ff       	callq  400e70 <__fprintf_chk@plt>
  4021c7:	bf 01 00 00 00       	mov    $0x1,%edi
  4021cc:	e8 7f ec ff ff       	callq  400e50 <exit@plt>
  4021d1:	48 8d 90 f8 ff 0f 00 	lea    0xffff8(%rax),%rdx
  4021d8:	48 89 15 71 3f 20 00 	mov    %rdx,0x203f71(%rip)        # 606150 <stack_top>
  4021df:	48 89 e0             	mov    %rsp,%rax
  4021e2:	48 89 d4             	mov    %rdx,%rsp
  4021e5:	48 89 c2             	mov    %rax,%rdx
  4021e8:	48 89 15 11 33 20 00 	mov    %rdx,0x203311(%rip)        # 605500 <global_save_stack>
  4021ef:	48 8b 3d 12 33 20 00 	mov    0x203312(%rip),%rdi        # 605508 <global_offset>
  4021f6:	e8 ba fe ff ff       	callq  4020b5 <launch>
  4021fb:	48 8b 05 fe 32 20 00 	mov    0x2032fe(%rip),%rax        # 605500 <global_save_stack>
  402202:	48 89 c4             	mov    %rax,%rsp
  402205:	be 00 00 10 00       	mov    $0x100000,%esi
  40220a:	48 89 df             	mov    %rbx,%rdi
  40220d:	e8 de eb ff ff       	callq  400df0 <munmap@plt>
  402212:	5b                   	pop    %rbx
  402213:	c3                   	retq   

0000000000402214 <rio_readinitb>:
  402214:	89 37                	mov    %esi,(%rdi)
  402216:	c7 47 04 00 00 00 00 	movl   $0x0,0x4(%rdi)
  40221d:	48 8d 47 10          	lea    0x10(%rdi),%rax
  402221:	48 89 47 08          	mov    %rax,0x8(%rdi)
  402225:	c3                   	retq   

0000000000402226 <sigalrm_handler>:
  402226:	48 83 ec 08          	sub    $0x8,%rsp
  40222a:	b9 00 00 00 00       	mov    $0x0,%ecx
  40222f:	ba 80 38 40 00       	mov    $0x403880,%edx
  402234:	be 01 00 00 00       	mov    $0x1,%esi
  402239:	48 8b 3d a0 32 20 00 	mov    0x2032a0(%rip),%rdi        # 6054e0 <stderr@@GLIBC_2.2.5>
  402240:	b8 00 00 00 00       	mov    $0x0,%eax
  402245:	e8 26 ec ff ff       	callq  400e70 <__fprintf_chk@plt>
  40224a:	bf 01 00 00 00       	mov    $0x1,%edi
  40224f:	e8 fc eb ff ff       	callq  400e50 <exit@plt>

0000000000402254 <rio_writen>:
  402254:	41 55                	push   %r13
  402256:	41 54                	push   %r12
  402258:	55                   	push   %rbp
  402259:	53                   	push   %rbx
  40225a:	48 83 ec 08          	sub    $0x8,%rsp
  40225e:	41 89 fc             	mov    %edi,%r12d
  402261:	48 89 f5             	mov    %rsi,%rbp
  402264:	49 89 d5             	mov    %rdx,%r13
  402267:	48 89 d3             	mov    %rdx,%rbx
  40226a:	eb 28                	jmp    402294 <rio_writen+0x40>
  40226c:	48 89 da             	mov    %rbx,%rdx
  40226f:	48 89 ee             	mov    %rbp,%rsi
  402272:	44 89 e7             	mov    %r12d,%edi
  402275:	e8 66 ea ff ff       	callq  400ce0 <write@plt>
  40227a:	48 85 c0             	test   %rax,%rax
  40227d:	7f 0f                	jg     40228e <rio_writen+0x3a>
  40227f:	e8 0c ea ff ff       	callq  400c90 <__errno_location@plt>
  402284:	83 38 04             	cmpl   $0x4,(%rax)
  402287:	75 15                	jne    40229e <rio_writen+0x4a>
  402289:	b8 00 00 00 00       	mov    $0x0,%eax
  40228e:	48 29 c3             	sub    %rax,%rbx
  402291:	48 01 c5             	add    %rax,%rbp
  402294:	48 85 db             	test   %rbx,%rbx
  402297:	75 d3                	jne    40226c <rio_writen+0x18>
  402299:	4c 89 e8             	mov    %r13,%rax
  40229c:	eb 07                	jmp    4022a5 <rio_writen+0x51>
  40229e:	48 c7 c0 ff ff ff ff 	mov    $0xffffffffffffffff,%rax
  4022a5:	48 83 c4 08          	add    $0x8,%rsp
  4022a9:	5b                   	pop    %rbx
  4022aa:	5d                   	pop    %rbp
  4022ab:	41 5c                	pop    %r12
  4022ad:	41 5d                	pop    %r13
  4022af:	c3                   	retq   

00000000004022b0 <rio_read>:
  4022b0:	41 55                	push   %r13
  4022b2:	41 54                	push   %r12
  4022b4:	55                   	push   %rbp
  4022b5:	53                   	push   %rbx
  4022b6:	48 83 ec 08          	sub    $0x8,%rsp
  4022ba:	48 89 fb             	mov    %rdi,%rbx
  4022bd:	49 89 f5             	mov    %rsi,%r13
  4022c0:	49 89 d4             	mov    %rdx,%r12
  4022c3:	eb 2e                	jmp    4022f3 <rio_read+0x43>
  4022c5:	48 8d 6b 10          	lea    0x10(%rbx),%rbp
  4022c9:	8b 3b                	mov    (%rbx),%edi
  4022cb:	ba 00 20 00 00       	mov    $0x2000,%edx
  4022d0:	48 89 ee             	mov    %rbp,%rsi
  4022d3:	e8 68 ea ff ff       	callq  400d40 <read@plt>
  4022d8:	89 43 04             	mov    %eax,0x4(%rbx)
  4022db:	85 c0                	test   %eax,%eax
  4022dd:	79 0c                	jns    4022eb <rio_read+0x3b>
  4022df:	e8 ac e9 ff ff       	callq  400c90 <__errno_location@plt>
  4022e4:	83 38 04             	cmpl   $0x4,(%rax)
  4022e7:	74 0a                	je     4022f3 <rio_read+0x43>
  4022e9:	eb 37                	jmp    402322 <rio_read+0x72>
  4022eb:	85 c0                	test   %eax,%eax
  4022ed:	74 3c                	je     40232b <rio_read+0x7b>
  4022ef:	48 89 6b 08          	mov    %rbp,0x8(%rbx)
  4022f3:	8b 6b 04             	mov    0x4(%rbx),%ebp
  4022f6:	85 ed                	test   %ebp,%ebp
  4022f8:	7e cb                	jle    4022c5 <rio_read+0x15>
  4022fa:	89 e8                	mov    %ebp,%eax
  4022fc:	49 39 c4             	cmp    %rax,%r12
  4022ff:	77 03                	ja     402304 <rio_read+0x54>
  402301:	44 89 e5             	mov    %r12d,%ebp
  402304:	4c 63 e5             	movslq %ebp,%r12
  402307:	48 8b 73 08          	mov    0x8(%rbx),%rsi
  40230b:	4c 89 e2             	mov    %r12,%rdx
  40230e:	4c 89 ef             	mov    %r13,%rdi
  402311:	e8 8a ea ff ff       	callq  400da0 <memcpy@plt>
  402316:	4c 01 63 08          	add    %r12,0x8(%rbx)
  40231a:	29 6b 04             	sub    %ebp,0x4(%rbx)
  40231d:	4c 89 e0             	mov    %r12,%rax
  402320:	eb 0e                	jmp    402330 <rio_read+0x80>
  402322:	48 c7 c0 ff ff ff ff 	mov    $0xffffffffffffffff,%rax
  402329:	eb 05                	jmp    402330 <rio_read+0x80>
  40232b:	b8 00 00 00 00       	mov    $0x0,%eax
  402330:	48 83 c4 08          	add    $0x8,%rsp
  402334:	5b                   	pop    %rbx
  402335:	5d                   	pop    %rbp
  402336:	41 5c                	pop    %r12
  402338:	41 5d                	pop    %r13
  40233a:	c3                   	retq   

000000000040233b <rio_readlineb>:
  40233b:	41 55                	push   %r13
  40233d:	41 54                	push   %r12
  40233f:	55                   	push   %rbp
  402340:	53                   	push   %rbx
  402341:	48 83 ec 18          	sub    $0x18,%rsp
  402345:	49 89 fd             	mov    %rdi,%r13
  402348:	48 89 f5             	mov    %rsi,%rbp
  40234b:	49 89 d4             	mov    %rdx,%r12
  40234e:	64 48 8b 04 25 28 00 	mov    %fs:0x28,%rax
  402355:	00 00 
  402357:	48 89 44 24 08       	mov    %rax,0x8(%rsp)
  40235c:	31 c0                	xor    %eax,%eax
  40235e:	bb 01 00 00 00       	mov    $0x1,%ebx
  402363:	eb 3f                	jmp    4023a4 <rio_readlineb+0x69>
  402365:	ba 01 00 00 00       	mov    $0x1,%edx
  40236a:	48 8d 74 24 07       	lea    0x7(%rsp),%rsi
  40236f:	4c 89 ef             	mov    %r13,%rdi
  402372:	e8 39 ff ff ff       	callq  4022b0 <rio_read>
  402377:	83 f8 01             	cmp    $0x1,%eax
  40237a:	75 15                	jne    402391 <rio_readlineb+0x56>
  40237c:	48 8d 45 01          	lea    0x1(%rbp),%rax
  402380:	0f b6 54 24 07       	movzbl 0x7(%rsp),%edx
  402385:	88 55 00             	mov    %dl,0x0(%rbp)
  402388:	80 7c 24 07 0a       	cmpb   $0xa,0x7(%rsp)
  40238d:	75 0e                	jne    40239d <rio_readlineb+0x62>
  40238f:	eb 1a                	jmp    4023ab <rio_readlineb+0x70>
  402391:	85 c0                	test   %eax,%eax
  402393:	75 22                	jne    4023b7 <rio_readlineb+0x7c>
  402395:	48 83 fb 01          	cmp    $0x1,%rbx
  402399:	75 13                	jne    4023ae <rio_readlineb+0x73>
  40239b:	eb 23                	jmp    4023c0 <rio_readlineb+0x85>
  40239d:	48 83 c3 01          	add    $0x1,%rbx
  4023a1:	48 89 c5             	mov    %rax,%rbp
  4023a4:	4c 39 e3             	cmp    %r12,%rbx
  4023a7:	72 bc                	jb     402365 <rio_readlineb+0x2a>
  4023a9:	eb 03                	jmp    4023ae <rio_readlineb+0x73>
  4023ab:	48 89 c5             	mov    %rax,%rbp
  4023ae:	c6 45 00 00          	movb   $0x0,0x0(%rbp)
  4023b2:	48 89 d8             	mov    %rbx,%rax
  4023b5:	eb 0e                	jmp    4023c5 <rio_readlineb+0x8a>
  4023b7:	48 c7 c0 ff ff ff ff 	mov    $0xffffffffffffffff,%rax
  4023be:	eb 05                	jmp    4023c5 <rio_readlineb+0x8a>
  4023c0:	b8 00 00 00 00       	mov    $0x0,%eax
  4023c5:	48 8b 4c 24 08       	mov    0x8(%rsp),%rcx
  4023ca:	64 48 33 0c 25 28 00 	xor    %fs:0x28,%rcx
  4023d1:	00 00 
  4023d3:	74 05                	je     4023da <rio_readlineb+0x9f>
  4023d5:	e8 16 e9 ff ff       	callq  400cf0 <__stack_chk_fail@plt>
  4023da:	48 83 c4 18          	add    $0x18,%rsp
  4023de:	5b                   	pop    %rbx
  4023df:	5d                   	pop    %rbp
  4023e0:	41 5c                	pop    %r12
  4023e2:	41 5d                	pop    %r13
  4023e4:	c3                   	retq   

00000000004023e5 <urlencode>:
  4023e5:	41 54                	push   %r12
  4023e7:	55                   	push   %rbp
  4023e8:	53                   	push   %rbx
  4023e9:	48 83 ec 10          	sub    $0x10,%rsp
  4023ed:	48 89 fb             	mov    %rdi,%rbx
  4023f0:	48 89 f5             	mov    %rsi,%rbp
  4023f3:	64 48 8b 04 25 28 00 	mov    %fs:0x28,%rax
  4023fa:	00 00 
  4023fc:	48 89 44 24 08       	mov    %rax,0x8(%rsp)
  402401:	31 c0                	xor    %eax,%eax
  402403:	48 c7 c1 ff ff ff ff 	mov    $0xffffffffffffffff,%rcx
  40240a:	f2 ae                	repnz scas %es:(%rdi),%al
  40240c:	48 f7 d1             	not    %rcx
  40240f:	8d 41 ff             	lea    -0x1(%rcx),%eax
  402412:	e9 aa 00 00 00       	jmpq   4024c1 <urlencode+0xdc>
  402417:	44 0f b6 03          	movzbl (%rbx),%r8d
  40241b:	41 80 f8 2a          	cmp    $0x2a,%r8b
  40241f:	0f 94 c2             	sete   %dl
  402422:	41 80 f8 2d          	cmp    $0x2d,%r8b
  402426:	0f 94 c0             	sete   %al
  402429:	08 c2                	or     %al,%dl
  40242b:	75 24                	jne    402451 <urlencode+0x6c>
  40242d:	41 80 f8 2e          	cmp    $0x2e,%r8b
  402431:	74 1e                	je     402451 <urlencode+0x6c>
  402433:	41 80 f8 5f          	cmp    $0x5f,%r8b
  402437:	74 18                	je     402451 <urlencode+0x6c>
  402439:	41 8d 40 d0          	lea    -0x30(%r8),%eax
  40243d:	3c 09                	cmp    $0x9,%al
  40243f:	76 10                	jbe    402451 <urlencode+0x6c>
  402441:	41 8d 40 bf          	lea    -0x41(%r8),%eax
  402445:	3c 19                	cmp    $0x19,%al
  402447:	76 08                	jbe    402451 <urlencode+0x6c>
  402449:	41 8d 40 9f          	lea    -0x61(%r8),%eax
  40244d:	3c 19                	cmp    $0x19,%al
  40244f:	77 0a                	ja     40245b <urlencode+0x76>
  402451:	44 88 45 00          	mov    %r8b,0x0(%rbp)
  402455:	48 8d 6d 01          	lea    0x1(%rbp),%rbp
  402459:	eb 5f                	jmp    4024ba <urlencode+0xd5>
  40245b:	41 80 f8 20          	cmp    $0x20,%r8b
  40245f:	75 0a                	jne    40246b <urlencode+0x86>
  402461:	c6 45 00 2b          	movb   $0x2b,0x0(%rbp)
  402465:	48 8d 6d 01          	lea    0x1(%rbp),%rbp
  402469:	eb 4f                	jmp    4024ba <urlencode+0xd5>
  40246b:	41 8d 40 e0          	lea    -0x20(%r8),%eax
  40246f:	3c 5f                	cmp    $0x5f,%al
  402471:	0f 96 c2             	setbe  %dl
  402474:	41 80 f8 09          	cmp    $0x9,%r8b
  402478:	0f 94 c0             	sete   %al
  40247b:	08 c2                	or     %al,%dl
  40247d:	74 50                	je     4024cf <urlencode+0xea>
  40247f:	45 0f b6 c0          	movzbl %r8b,%r8d
  402483:	b9 18 39 40 00       	mov    $0x403918,%ecx
  402488:	ba 08 00 00 00       	mov    $0x8,%edx
  40248d:	be 01 00 00 00       	mov    $0x1,%esi
  402492:	48 89 e7             	mov    %rsp,%rdi
  402495:	b8 00 00 00 00       	mov    $0x0,%eax
  40249a:	e8 e1 e9 ff ff       	callq  400e80 <__sprintf_chk@plt>
  40249f:	0f b6 04 24          	movzbl (%rsp),%eax
  4024a3:	88 45 00             	mov    %al,0x0(%rbp)
  4024a6:	0f b6 44 24 01       	movzbl 0x1(%rsp),%eax
  4024ab:	88 45 01             	mov    %al,0x1(%rbp)
  4024ae:	0f b6 44 24 02       	movzbl 0x2(%rsp),%eax
  4024b3:	88 45 02             	mov    %al,0x2(%rbp)
  4024b6:	48 8d 6d 03          	lea    0x3(%rbp),%rbp
  4024ba:	48 83 c3 01          	add    $0x1,%rbx
  4024be:	44 89 e0             	mov    %r12d,%eax
  4024c1:	44 8d 60 ff          	lea    -0x1(%rax),%r12d
  4024c5:	85 c0                	test   %eax,%eax
  4024c7:	0f 85 4a ff ff ff    	jne    402417 <urlencode+0x32>
  4024cd:	eb 05                	jmp    4024d4 <urlencode+0xef>
  4024cf:	b8 ff ff ff ff       	mov    $0xffffffff,%eax
  4024d4:	48 8b 74 24 08       	mov    0x8(%rsp),%rsi
  4024d9:	64 48 33 34 25 28 00 	xor    %fs:0x28,%rsi
  4024e0:	00 00 
  4024e2:	74 05                	je     4024e9 <urlencode+0x104>
  4024e4:	e8 07 e8 ff ff       	callq  400cf0 <__stack_chk_fail@plt>
  4024e9:	48 83 c4 10          	add    $0x10,%rsp
  4024ed:	5b                   	pop    %rbx
  4024ee:	5d                   	pop    %rbp
  4024ef:	41 5c                	pop    %r12
  4024f1:	c3                   	retq   

00000000004024f2 <submitr>:
  4024f2:	41 57                	push   %r15
  4024f4:	41 56                	push   %r14
  4024f6:	41 55                	push   %r13
  4024f8:	41 54                	push   %r12
  4024fa:	55                   	push   %rbp
  4024fb:	53                   	push   %rbx
  4024fc:	48 81 ec 58 a0 00 00 	sub    $0xa058,%rsp
  402503:	49 89 fc             	mov    %rdi,%r12
  402506:	89 74 24 04          	mov    %esi,0x4(%rsp)
  40250a:	49 89 d7             	mov    %rdx,%r15
  40250d:	49 89 ce             	mov    %rcx,%r14
  402510:	4c 89 44 24 08       	mov    %r8,0x8(%rsp)
  402515:	4d 89 cd             	mov    %r9,%r13
  402518:	48 8b 9c 24 90 a0 00 	mov    0xa090(%rsp),%rbx
  40251f:	00 
  402520:	64 48 8b 04 25 28 00 	mov    %fs:0x28,%rax
  402527:	00 00 
  402529:	48 89 84 24 48 a0 00 	mov    %rax,0xa048(%rsp)
  402530:	00 
  402531:	31 c0                	xor    %eax,%eax
  402533:	c7 44 24 1c 00 00 00 	movl   $0x0,0x1c(%rsp)
  40253a:	00 
  40253b:	ba 00 00 00 00       	mov    $0x0,%edx
  402540:	be 01 00 00 00       	mov    $0x1,%esi
  402545:	bf 02 00 00 00       	mov    $0x2,%edi
  40254a:	e8 41 e9 ff ff       	callq  400e90 <socket@plt>
  40254f:	85 c0                	test   %eax,%eax
  402551:	79 4e                	jns    4025a1 <submitr+0xaf>
  402553:	48 b8 45 72 72 6f 72 	movabs $0x43203a726f727245,%rax
  40255a:	3a 20 43 
  40255d:	48 89 03             	mov    %rax,(%rbx)
  402560:	48 b8 6c 69 65 6e 74 	movabs $0x6e7520746e65696c,%rax
  402567:	20 75 6e 
  40256a:	48 89 43 08          	mov    %rax,0x8(%rbx)
  40256e:	48 b8 61 62 6c 65 20 	movabs $0x206f7420656c6261,%rax
  402575:	74 6f 20 
  402578:	48 89 43 10          	mov    %rax,0x10(%rbx)
  40257c:	48 b8 63 72 65 61 74 	movabs $0x7320657461657263,%rax
  402583:	65 20 73 
  402586:	48 89 43 18          	mov    %rax,0x18(%rbx)
  40258a:	c7 43 20 6f 63 6b 65 	movl   $0x656b636f,0x20(%rbx)
  402591:	66 c7 43 24 74 00    	movw   $0x74,0x24(%rbx)
  402597:	b8 ff ff ff ff       	mov    $0xffffffff,%eax
  40259c:	e9 97 06 00 00       	jmpq   402c38 <submitr+0x746>
  4025a1:	89 c5                	mov    %eax,%ebp
  4025a3:	4c 89 e7             	mov    %r12,%rdi
  4025a6:	e8 c5 e7 ff ff       	callq  400d70 <gethostbyname@plt>
  4025ab:	48 85 c0             	test   %rax,%rax
  4025ae:	75 67                	jne    402617 <submitr+0x125>
  4025b0:	48 b8 45 72 72 6f 72 	movabs $0x44203a726f727245,%rax
  4025b7:	3a 20 44 
  4025ba:	48 89 03             	mov    %rax,(%rbx)
  4025bd:	48 b8 4e 53 20 69 73 	movabs $0x6e7520736920534e,%rax
  4025c4:	20 75 6e 
  4025c7:	48 89 43 08          	mov    %rax,0x8(%rbx)
  4025cb:	48 b8 61 62 6c 65 20 	movabs $0x206f7420656c6261,%rax
  4025d2:	74 6f 20 
  4025d5:	48 89 43 10          	mov    %rax,0x10(%rbx)
  4025d9:	48 b8 72 65 73 6f 6c 	movabs $0x2065766c6f736572,%rax
  4025e0:	76 65 20 
  4025e3:	48 89 43 18          	mov    %rax,0x18(%rbx)
  4025e7:	48 b8 73 65 72 76 65 	movabs $0x6120726576726573,%rax
  4025ee:	72 20 61 
  4025f1:	48 89 43 20          	mov    %rax,0x20(%rbx)
  4025f5:	c7 43 28 64 64 72 65 	movl   $0x65726464,0x28(%rbx)
  4025fc:	66 c7 43 2c 73 73    	movw   $0x7373,0x2c(%rbx)
  402602:	c6 43 2e 00          	movb   $0x0,0x2e(%rbx)
  402606:	89 ef                	mov    %ebp,%edi
  402608:	e8 23 e7 ff ff       	callq  400d30 <close@plt>
  40260d:	b8 ff ff ff ff       	mov    $0xffffffff,%eax
  402612:	e9 21 06 00 00       	jmpq   402c38 <submitr+0x746>
  402617:	48 c7 44 24 20 00 00 	movq   $0x0,0x20(%rsp)
  40261e:	00 00 
  402620:	48 c7 44 24 28 00 00 	movq   $0x0,0x28(%rsp)
  402627:	00 00 
  402629:	66 c7 44 24 20 02 00 	movw   $0x2,0x20(%rsp)
  402630:	48 63 50 14          	movslq 0x14(%rax),%rdx
  402634:	48 8b 40 18          	mov    0x18(%rax),%rax
  402638:	48 8b 30             	mov    (%rax),%rsi
  40263b:	48 8d 7c 24 24       	lea    0x24(%rsp),%rdi
  402640:	b9 0c 00 00 00       	mov    $0xc,%ecx
  402645:	e8 36 e7 ff ff       	callq  400d80 <__memmove_chk@plt>
  40264a:	0f b7 44 24 04       	movzwl 0x4(%rsp),%eax
  40264f:	66 c1 c8 08          	ror    $0x8,%ax
  402653:	66 89 44 24 22       	mov    %ax,0x22(%rsp)
  402658:	ba 10 00 00 00       	mov    $0x10,%edx
  40265d:	48 8d 74 24 20       	lea    0x20(%rsp),%rsi
  402662:	89 ef                	mov    %ebp,%edi
  402664:	e8 f7 e7 ff ff       	callq  400e60 <connect@plt>
  402669:	85 c0                	test   %eax,%eax
  40266b:	79 59                	jns    4026c6 <submitr+0x1d4>
  40266d:	48 b8 45 72 72 6f 72 	movabs $0x55203a726f727245,%rax
  402674:	3a 20 55 
  402677:	48 89 03             	mov    %rax,(%rbx)
  40267a:	48 b8 6e 61 62 6c 65 	movabs $0x6f7420656c62616e,%rax
  402681:	20 74 6f 
  402684:	48 89 43 08          	mov    %rax,0x8(%rbx)
  402688:	48 b8 20 63 6f 6e 6e 	movabs $0x7463656e6e6f6320,%rax
  40268f:	65 63 74 
  402692:	48 89 43 10          	mov    %rax,0x10(%rbx)
  402696:	48 b8 20 74 6f 20 74 	movabs $0x20656874206f7420,%rax
  40269d:	68 65 20 
  4026a0:	48 89 43 18          	mov    %rax,0x18(%rbx)
  4026a4:	c7 43 20 73 65 72 76 	movl   $0x76726573,0x20(%rbx)
  4026ab:	66 c7 43 24 65 72    	movw   $0x7265,0x24(%rbx)
  4026b1:	c6 43 26 00          	movb   $0x0,0x26(%rbx)
  4026b5:	89 ef                	mov    %ebp,%edi
  4026b7:	e8 74 e6 ff ff       	callq  400d30 <close@plt>
  4026bc:	b8 ff ff ff ff       	mov    $0xffffffff,%eax
  4026c1:	e9 72 05 00 00       	jmpq   402c38 <submitr+0x746>
  4026c6:	48 c7 c6 ff ff ff ff 	mov    $0xffffffffffffffff,%rsi
  4026cd:	b8 00 00 00 00       	mov    $0x0,%eax
  4026d2:	48 89 f1             	mov    %rsi,%rcx
  4026d5:	4c 89 ef             	mov    %r13,%rdi
  4026d8:	f2 ae                	repnz scas %es:(%rdi),%al
  4026da:	48 f7 d1             	not    %rcx
  4026dd:	48 89 ca             	mov    %rcx,%rdx
  4026e0:	48 89 f1             	mov    %rsi,%rcx
  4026e3:	4c 89 ff             	mov    %r15,%rdi
  4026e6:	f2 ae                	repnz scas %es:(%rdi),%al
  4026e8:	48 f7 d1             	not    %rcx
  4026eb:	49 89 c8             	mov    %rcx,%r8
  4026ee:	48 89 f1             	mov    %rsi,%rcx
  4026f1:	4c 89 f7             	mov    %r14,%rdi
  4026f4:	f2 ae                	repnz scas %es:(%rdi),%al
  4026f6:	48 f7 d1             	not    %rcx
  4026f9:	4d 8d 44 08 fe       	lea    -0x2(%r8,%rcx,1),%r8
  4026fe:	48 89 f1             	mov    %rsi,%rcx
  402701:	48 8b 7c 24 08       	mov    0x8(%rsp),%rdi
  402706:	f2 ae                	repnz scas %es:(%rdi),%al
  402708:	48 89 c8             	mov    %rcx,%rax
  40270b:	48 f7 d0             	not    %rax
  40270e:	49 8d 4c 00 ff       	lea    -0x1(%r8,%rax,1),%rcx
  402713:	48 8d 44 52 fd       	lea    -0x3(%rdx,%rdx,2),%rax
  402718:	48 8d 84 01 80 00 00 	lea    0x80(%rcx,%rax,1),%rax
  40271f:	00 
  402720:	48 3d 00 20 00 00    	cmp    $0x2000,%rax
  402726:	76 72                	jbe    40279a <submitr+0x2a8>
  402728:	48 b8 45 72 72 6f 72 	movabs $0x52203a726f727245,%rax
  40272f:	3a 20 52 
  402732:	48 89 03             	mov    %rax,(%rbx)
  402735:	48 b8 65 73 75 6c 74 	movabs $0x747320746c757365,%rax
  40273c:	20 73 74 
  40273f:	48 89 43 08          	mov    %rax,0x8(%rbx)
  402743:	48 b8 72 69 6e 67 20 	movabs $0x6f6f7420676e6972,%rax
  40274a:	74 6f 6f 
  40274d:	48 89 43 10          	mov    %rax,0x10(%rbx)
  402751:	48 b8 20 6c 61 72 67 	movabs $0x202e656772616c20,%rax
  402758:	65 2e 20 
  40275b:	48 89 43 18          	mov    %rax,0x18(%rbx)
  40275f:	48 b8 49 6e 63 72 65 	movabs $0x6573616572636e49,%rax
  402766:	61 73 65 
  402769:	48 89 43 20          	mov    %rax,0x20(%rbx)
  40276d:	48 b8 20 53 55 42 4d 	movabs $0x5254494d42555320,%rax
  402774:	49 54 52 
  402777:	48 89 43 28          	mov    %rax,0x28(%rbx)
  40277b:	48 b8 5f 4d 41 58 42 	movabs $0x46554258414d5f,%rax
  402782:	55 46 00 
  402785:	48 89 43 30          	mov    %rax,0x30(%rbx)
  402789:	89 ef                	mov    %ebp,%edi
  40278b:	e8 a0 e5 ff ff       	callq  400d30 <close@plt>
  402790:	b8 ff ff ff ff       	mov    $0xffffffff,%eax
  402795:	e9 9e 04 00 00       	jmpq   402c38 <submitr+0x746>
  40279a:	48 8d b4 24 40 40 00 	lea    0x4040(%rsp),%rsi
  4027a1:	00 
  4027a2:	b9 00 04 00 00       	mov    $0x400,%ecx
  4027a7:	b8 00 00 00 00       	mov    $0x0,%eax
  4027ac:	48 89 f7             	mov    %rsi,%rdi
  4027af:	f3 48 ab             	rep stos %rax,%es:(%rdi)
  4027b2:	4c 89 ef             	mov    %r13,%rdi
  4027b5:	e8 2b fc ff ff       	callq  4023e5 <urlencode>
  4027ba:	85 c0                	test   %eax,%eax
  4027bc:	0f 89 8a 00 00 00    	jns    40284c <submitr+0x35a>
  4027c2:	48 b8 45 72 72 6f 72 	movabs $0x52203a726f727245,%rax
  4027c9:	3a 20 52 
  4027cc:	48 89 03             	mov    %rax,(%rbx)
  4027cf:	48 b8 65 73 75 6c 74 	movabs $0x747320746c757365,%rax
  4027d6:	20 73 74 
  4027d9:	48 89 43 08          	mov    %rax,0x8(%rbx)
  4027dd:	48 b8 72 69 6e 67 20 	movabs $0x6e6f6320676e6972,%rax
  4027e4:	63 6f 6e 
  4027e7:	48 89 43 10          	mov    %rax,0x10(%rbx)
  4027eb:	48 b8 74 61 69 6e 73 	movabs $0x6e6120736e696174,%rax
  4027f2:	20 61 6e 
  4027f5:	48 89 43 18          	mov    %rax,0x18(%rbx)
  4027f9:	48 b8 20 69 6c 6c 65 	movabs $0x6c6167656c6c6920,%rax
  402800:	67 61 6c 
  402803:	48 89 43 20          	mov    %rax,0x20(%rbx)
  402807:	48 b8 20 6f 72 20 75 	movabs $0x72706e7520726f20,%rax
  40280e:	6e 70 72 
  402811:	48 89 43 28          	mov    %rax,0x28(%rbx)
  402815:	48 b8 69 6e 74 61 62 	movabs $0x20656c6261746e69,%rax
  40281c:	6c 65 20 
  40281f:	48 89 43 30          	mov    %rax,0x30(%rbx)
  402823:	48 b8 63 68 61 72 61 	movabs $0x6574636172616863,%rax
  40282a:	63 74 65 
  40282d:	48 89 43 38          	mov    %rax,0x38(%rbx)
  402831:	66 c7 43 40 72 2e    	movw   $0x2e72,0x40(%rbx)
  402837:	c6 43 42 00          	movb   $0x0,0x42(%rbx)
  40283b:	89 ef                	mov    %ebp,%edi
  40283d:	e8 ee e4 ff ff       	callq  400d30 <close@plt>
  402842:	b8 ff ff ff ff       	mov    $0xffffffff,%eax
  402847:	e9 ec 03 00 00       	jmpq   402c38 <submitr+0x746>
  40284c:	4c 8d ac 24 40 20 00 	lea    0x2040(%rsp),%r13
  402853:	00 
  402854:	41 54                	push   %r12
  402856:	48 8d 84 24 48 40 00 	lea    0x4048(%rsp),%rax
  40285d:	00 
  40285e:	50                   	push   %rax
  40285f:	4d 89 f9             	mov    %r15,%r9
  402862:	4d 89 f0             	mov    %r14,%r8
  402865:	b9 a8 38 40 00       	mov    $0x4038a8,%ecx
  40286a:	ba 00 20 00 00       	mov    $0x2000,%edx
  40286f:	be 01 00 00 00       	mov    $0x1,%esi
  402874:	4c 89 ef             	mov    %r13,%rdi
  402877:	b8 00 00 00 00       	mov    $0x0,%eax
  40287c:	e8 ff e5 ff ff       	callq  400e80 <__sprintf_chk@plt>
  402881:	b8 00 00 00 00       	mov    $0x0,%eax
  402886:	48 c7 c1 ff ff ff ff 	mov    $0xffffffffffffffff,%rcx
  40288d:	4c 89 ef             	mov    %r13,%rdi
  402890:	f2 ae                	repnz scas %es:(%rdi),%al
  402892:	48 f7 d1             	not    %rcx
  402895:	48 8d 51 ff          	lea    -0x1(%rcx),%rdx
  402899:	4c 89 ee             	mov    %r13,%rsi
  40289c:	89 ef                	mov    %ebp,%edi
  40289e:	e8 b1 f9 ff ff       	callq  402254 <rio_writen>
  4028a3:	48 83 c4 10          	add    $0x10,%rsp
  4028a7:	48 85 c0             	test   %rax,%rax
  4028aa:	79 6e                	jns    40291a <submitr+0x428>
  4028ac:	48 b8 45 72 72 6f 72 	movabs $0x43203a726f727245,%rax
  4028b3:	3a 20 43 
  4028b6:	48 89 03             	mov    %rax,(%rbx)
  4028b9:	48 b8 6c 69 65 6e 74 	movabs $0x6e7520746e65696c,%rax
  4028c0:	20 75 6e 
  4028c3:	48 89 43 08          	mov    %rax,0x8(%rbx)
  4028c7:	48 b8 61 62 6c 65 20 	movabs $0x206f7420656c6261,%rax
  4028ce:	74 6f 20 
  4028d1:	48 89 43 10          	mov    %rax,0x10(%rbx)
  4028d5:	48 b8 77 72 69 74 65 	movabs $0x6f74206574697277,%rax
  4028dc:	20 74 6f 
  4028df:	48 89 43 18          	mov    %rax,0x18(%rbx)
  4028e3:	48 b8 20 74 68 65 20 	movabs $0x7365722065687420,%rax
  4028ea:	72 65 73 
  4028ed:	48 89 43 20          	mov    %rax,0x20(%rbx)
  4028f1:	48 b8 75 6c 74 20 73 	movabs $0x7672657320746c75,%rax
  4028f8:	65 72 76 
  4028fb:	48 89 43 28          	mov    %rax,0x28(%rbx)
  4028ff:	66 c7 43 30 65 72    	movw   $0x7265,0x30(%rbx)
  402905:	c6 43 32 00          	movb   $0x0,0x32(%rbx)
  402909:	89 ef                	mov    %ebp,%edi
  40290b:	e8 20 e4 ff ff       	callq  400d30 <close@plt>
  402910:	b8 ff ff ff ff       	mov    $0xffffffff,%eax
  402915:	e9 1e 03 00 00       	jmpq   402c38 <submitr+0x746>
  40291a:	89 ee                	mov    %ebp,%esi
  40291c:	48 8d 7c 24 30       	lea    0x30(%rsp),%rdi
  402921:	e8 ee f8 ff ff       	callq  402214 <rio_readinitb>
  402926:	ba 00 20 00 00       	mov    $0x2000,%edx
  40292b:	48 8d b4 24 40 20 00 	lea    0x2040(%rsp),%rsi
  402932:	00 
  402933:	48 8d 7c 24 30       	lea    0x30(%rsp),%rdi
  402938:	e8 fe f9 ff ff       	callq  40233b <rio_readlineb>
  40293d:	48 85 c0             	test   %rax,%rax
  402940:	7f 7d                	jg     4029bf <submitr+0x4cd>
  402942:	48 b8 45 72 72 6f 72 	movabs $0x43203a726f727245,%rax
  402949:	3a 20 43 
  40294c:	48 89 03             	mov    %rax,(%rbx)
  40294f:	48 b8 6c 69 65 6e 74 	movabs $0x6e7520746e65696c,%rax
  402956:	20 75 6e 
  402959:	48 89 43 08          	mov    %rax,0x8(%rbx)
  40295d:	48 b8 61 62 6c 65 20 	movabs $0x206f7420656c6261,%rax
  402964:	74 6f 20 
  402967:	48 89 43 10          	mov    %rax,0x10(%rbx)
  40296b:	48 b8 72 65 61 64 20 	movabs $0x7269662064616572,%rax
  402972:	66 69 72 
  402975:	48 89 43 18          	mov    %rax,0x18(%rbx)
  402979:	48 b8 73 74 20 68 65 	movabs $0x6564616568207473,%rax
  402980:	61 64 65 
  402983:	48 89 43 20          	mov    %rax,0x20(%rbx)
  402987:	48 b8 72 20 66 72 6f 	movabs $0x72206d6f72662072,%rax
  40298e:	6d 20 72 
  402991:	48 89 43 28          	mov    %rax,0x28(%rbx)
  402995:	48 b8 65 73 75 6c 74 	movabs $0x657320746c757365,%rax
  40299c:	20 73 65 
  40299f:	48 89 43 30          	mov    %rax,0x30(%rbx)
  4029a3:	c7 43 38 72 76 65 72 	movl   $0x72657672,0x38(%rbx)
  4029aa:	c6 43 3c 00          	movb   $0x0,0x3c(%rbx)
  4029ae:	89 ef                	mov    %ebp,%edi
  4029b0:	e8 7b e3 ff ff       	callq  400d30 <close@plt>
  4029b5:	b8 ff ff ff ff       	mov    $0xffffffff,%eax
  4029ba:	e9 79 02 00 00       	jmpq   402c38 <submitr+0x746>
  4029bf:	4c 8d 84 24 40 80 00 	lea    0x8040(%rsp),%r8
  4029c6:	00 
  4029c7:	48 8d 4c 24 1c       	lea    0x1c(%rsp),%rcx
  4029cc:	48 8d 94 24 40 60 00 	lea    0x6040(%rsp),%rdx
  4029d3:	00 
  4029d4:	be 1f 39 40 00       	mov    $0x40391f,%esi
  4029d9:	48 8d bc 24 40 20 00 	lea    0x2040(%rsp),%rdi
  4029e0:	00 
  4029e1:	b8 00 00 00 00       	mov    $0x0,%eax
  4029e6:	e8 f5 e3 ff ff       	callq  400de0 <__isoc99_sscanf@plt>
  4029eb:	e9 95 00 00 00       	jmpq   402a85 <submitr+0x593>
  4029f0:	ba 00 20 00 00       	mov    $0x2000,%edx
  4029f5:	48 8d b4 24 40 20 00 	lea    0x2040(%rsp),%rsi
  4029fc:	00 
  4029fd:	48 8d 7c 24 30       	lea    0x30(%rsp),%rdi
  402a02:	e8 34 f9 ff ff       	callq  40233b <rio_readlineb>
  402a07:	48 85 c0             	test   %rax,%rax
  402a0a:	7f 79                	jg     402a85 <submitr+0x593>
  402a0c:	48 b8 45 72 72 6f 72 	movabs $0x43203a726f727245,%rax
  402a13:	3a 20 43 
  402a16:	48 89 03             	mov    %rax,(%rbx)
  402a19:	48 b8 6c 69 65 6e 74 	movabs $0x6e7520746e65696c,%rax
  402a20:	20 75 6e 
  402a23:	48 89 43 08          	mov    %rax,0x8(%rbx)
  402a27:	48 b8 61 62 6c 65 20 	movabs $0x206f7420656c6261,%rax
  402a2e:	74 6f 20 
  402a31:	48 89 43 10          	mov    %rax,0x10(%rbx)
  402a35:	48 b8 72 65 61 64 20 	movabs $0x6165682064616572,%rax
  402a3c:	68 65 61 
  402a3f:	48 89 43 18          	mov    %rax,0x18(%rbx)
  402a43:	48 b8 64 65 72 73 20 	movabs $0x6f72662073726564,%rax
  402a4a:	66 72 6f 
  402a4d:	48 89 43 20          	mov    %rax,0x20(%rbx)
  402a51:	48 b8 6d 20 74 68 65 	movabs $0x657220656874206d,%rax
  402a58:	20 72 65 
  402a5b:	48 89 43 28          	mov    %rax,0x28(%rbx)
  402a5f:	48 b8 73 75 6c 74 20 	movabs $0x72657320746c7573,%rax
  402a66:	73 65 72 
  402a69:	48 89 43 30          	mov    %rax,0x30(%rbx)
  402a6d:	c7 43 38 76 65 72 00 	movl   $0x726576,0x38(%rbx)
  402a74:	89 ef                	mov    %ebp,%edi
  402a76:	e8 b5 e2 ff ff       	callq  400d30 <close@plt>
  402a7b:	b8 ff ff ff ff       	mov    $0xffffffff,%eax
  402a80:	e9 b3 01 00 00       	jmpq   402c38 <submitr+0x746>
  402a85:	0f b6 94 24 40 20 00 	movzbl 0x2040(%rsp),%edx
  402a8c:	00 
  402a8d:	b8 0d 00 00 00       	mov    $0xd,%eax
  402a92:	29 d0                	sub    %edx,%eax
  402a94:	75 1b                	jne    402ab1 <submitr+0x5bf>
  402a96:	0f b6 94 24 41 20 00 	movzbl 0x2041(%rsp),%edx
  402a9d:	00 
  402a9e:	b8 0a 00 00 00       	mov    $0xa,%eax
  402aa3:	29 d0                	sub    %edx,%eax
  402aa5:	75 0a                	jne    402ab1 <submitr+0x5bf>
  402aa7:	0f b6 84 24 42 20 00 	movzbl 0x2042(%rsp),%eax
  402aae:	00 
  402aaf:	f7 d8                	neg    %eax
  402ab1:	85 c0                	test   %eax,%eax
  402ab3:	0f 85 37 ff ff ff    	jne    4029f0 <submitr+0x4fe>
  402ab9:	ba 00 20 00 00       	mov    $0x2000,%edx
  402abe:	48 8d b4 24 40 20 00 	lea    0x2040(%rsp),%rsi
  402ac5:	00 
  402ac6:	48 8d 7c 24 30       	lea    0x30(%rsp),%rdi
  402acb:	e8 6b f8 ff ff       	callq  40233b <rio_readlineb>
  402ad0:	48 85 c0             	test   %rax,%rax
  402ad3:	0f 8f 83 00 00 00    	jg     402b5c <submitr+0x66a>
  402ad9:	48 b8 45 72 72 6f 72 	movabs $0x43203a726f727245,%rax
  402ae0:	3a 20 43 
  402ae3:	48 89 03             	mov    %rax,(%rbx)
  402ae6:	48 b8 6c 69 65 6e 74 	movabs $0x6e7520746e65696c,%rax
  402aed:	20 75 6e 
  402af0:	48 89 43 08          	mov    %rax,0x8(%rbx)
  402af4:	48 b8 61 62 6c 65 20 	movabs $0x206f7420656c6261,%rax
  402afb:	74 6f 20 
  402afe:	48 89 43 10          	mov    %rax,0x10(%rbx)
  402b02:	48 b8 72 65 61 64 20 	movabs $0x6174732064616572,%rax
  402b09:	73 74 61 
  402b0c:	48 89 43 18          	mov    %rax,0x18(%rbx)
  402b10:	48 b8 74 75 73 20 6d 	movabs $0x7373656d20737574,%rax
  402b17:	65 73 73 
  402b1a:	48 89 43 20          	mov    %rax,0x20(%rbx)
  402b1e:	48 b8 61 67 65 20 66 	movabs $0x6d6f726620656761,%rax
  402b25:	72 6f 6d 
  402b28:	48 89 43 28          	mov    %rax,0x28(%rbx)
  402b2c:	48 b8 20 72 65 73 75 	movabs $0x20746c7573657220,%rax
  402b33:	6c 74 20 
  402b36:	48 89 43 30          	mov    %rax,0x30(%rbx)
  402b3a:	c7 43 38 73 65 72 76 	movl   $0x76726573,0x38(%rbx)
  402b41:	66 c7 43 3c 65 72    	movw   $0x7265,0x3c(%rbx)
  402b47:	c6 43 3e 00          	movb   $0x0,0x3e(%rbx)
  402b4b:	89 ef                	mov    %ebp,%edi
  402b4d:	e8 de e1 ff ff       	callq  400d30 <close@plt>
  402b52:	b8 ff ff ff ff       	mov    $0xffffffff,%eax
  402b57:	e9 dc 00 00 00       	jmpq   402c38 <submitr+0x746>
  402b5c:	44 8b 44 24 1c       	mov    0x1c(%rsp),%r8d
  402b61:	41 81 f8 c8 00 00 00 	cmp    $0xc8,%r8d
  402b68:	74 37                	je     402ba1 <submitr+0x6af>
  402b6a:	4c 8d 8c 24 40 80 00 	lea    0x8040(%rsp),%r9
  402b71:	00 
  402b72:	b9 e8 38 40 00       	mov    $0x4038e8,%ecx
  402b77:	48 c7 c2 ff ff ff ff 	mov    $0xffffffffffffffff,%rdx
  402b7e:	be 01 00 00 00       	mov    $0x1,%esi
  402b83:	48 89 df             	mov    %rbx,%rdi
  402b86:	b8 00 00 00 00       	mov    $0x0,%eax
  402b8b:	e8 f0 e2 ff ff       	callq  400e80 <__sprintf_chk@plt>
  402b90:	89 ef                	mov    %ebp,%edi
  402b92:	e8 99 e1 ff ff       	callq  400d30 <close@plt>
  402b97:	b8 ff ff ff ff       	mov    $0xffffffff,%eax
  402b9c:	e9 97 00 00 00       	jmpq   402c38 <submitr+0x746>
  402ba1:	48 8d b4 24 40 20 00 	lea    0x2040(%rsp),%rsi
  402ba8:	00 
  402ba9:	48 89 df             	mov    %rbx,%rdi
  402bac:	e8 0f e1 ff ff       	callq  400cc0 <strcpy@plt>
  402bb1:	89 ef                	mov    %ebp,%edi
  402bb3:	e8 78 e1 ff ff       	callq  400d30 <close@plt>
  402bb8:	0f b6 03             	movzbl (%rbx),%eax
  402bbb:	ba 4f 00 00 00       	mov    $0x4f,%edx
  402bc0:	29 c2                	sub    %eax,%edx
  402bc2:	75 22                	jne    402be6 <submitr+0x6f4>
  402bc4:	0f b6 4b 01          	movzbl 0x1(%rbx),%ecx
  402bc8:	b8 4b 00 00 00       	mov    $0x4b,%eax
  402bcd:	29 c8                	sub    %ecx,%eax
  402bcf:	75 17                	jne    402be8 <submitr+0x6f6>
  402bd1:	0f b6 4b 02          	movzbl 0x2(%rbx),%ecx
  402bd5:	b8 0a 00 00 00       	mov    $0xa,%eax
  402bda:	29 c8                	sub    %ecx,%eax
  402bdc:	75 0a                	jne    402be8 <submitr+0x6f6>
  402bde:	0f b6 43 03          	movzbl 0x3(%rbx),%eax
  402be2:	f7 d8                	neg    %eax
  402be4:	eb 02                	jmp    402be8 <submitr+0x6f6>
  402be6:	89 d0                	mov    %edx,%eax
  402be8:	85 c0                	test   %eax,%eax
  402bea:	74 40                	je     402c2c <submitr+0x73a>
  402bec:	bf 30 39 40 00       	mov    $0x403930,%edi
  402bf1:	b9 05 00 00 00       	mov    $0x5,%ecx
  402bf6:	48 89 de             	mov    %rbx,%rsi
  402bf9:	f3 a6                	repz cmpsb %es:(%rdi),%ds:(%rsi)
  402bfb:	0f 97 c0             	seta   %al
  402bfe:	0f 92 c1             	setb   %cl
  402c01:	29 c8                	sub    %ecx,%eax
  402c03:	0f be c0             	movsbl %al,%eax
  402c06:	85 c0                	test   %eax,%eax
  402c08:	74 2e                	je     402c38 <submitr+0x746>
  402c0a:	85 d2                	test   %edx,%edx
  402c0c:	75 13                	jne    402c21 <submitr+0x72f>
  402c0e:	0f b6 43 01          	movzbl 0x1(%rbx),%eax
  402c12:	ba 4b 00 00 00       	mov    $0x4b,%edx
  402c17:	29 c2                	sub    %eax,%edx
  402c19:	75 06                	jne    402c21 <submitr+0x72f>
  402c1b:	0f b6 53 02          	movzbl 0x2(%rbx),%edx
  402c1f:	f7 da                	neg    %edx
  402c21:	85 d2                	test   %edx,%edx
  402c23:	75 0e                	jne    402c33 <submitr+0x741>
  402c25:	b8 00 00 00 00       	mov    $0x0,%eax
  402c2a:	eb 0c                	jmp    402c38 <submitr+0x746>
  402c2c:	b8 00 00 00 00       	mov    $0x0,%eax
  402c31:	eb 05                	jmp    402c38 <submitr+0x746>
  402c33:	b8 ff ff ff ff       	mov    $0xffffffff,%eax
  402c38:	48 8b 9c 24 48 a0 00 	mov    0xa048(%rsp),%rbx
  402c3f:	00 
  402c40:	64 48 33 1c 25 28 00 	xor    %fs:0x28,%rbx
  402c47:	00 00 
  402c49:	74 05                	je     402c50 <submitr+0x75e>
  402c4b:	e8 a0 e0 ff ff       	callq  400cf0 <__stack_chk_fail@plt>
  402c50:	48 81 c4 58 a0 00 00 	add    $0xa058,%rsp
  402c57:	5b                   	pop    %rbx
  402c58:	5d                   	pop    %rbp
  402c59:	41 5c                	pop    %r12
  402c5b:	41 5d                	pop    %r13
  402c5d:	41 5e                	pop    %r14
  402c5f:	41 5f                	pop    %r15
  402c61:	c3                   	retq   

0000000000402c62 <init_timeout>:
  402c62:	85 ff                	test   %edi,%edi
  402c64:	74 23                	je     402c89 <init_timeout+0x27>
  402c66:	53                   	push   %rbx
  402c67:	89 fb                	mov    %edi,%ebx
  402c69:	85 ff                	test   %edi,%edi
  402c6b:	79 05                	jns    402c72 <init_timeout+0x10>
  402c6d:	bb 00 00 00 00       	mov    $0x0,%ebx
  402c72:	be 26 22 40 00       	mov    $0x402226,%esi
  402c77:	bf 0e 00 00 00       	mov    $0xe,%edi
  402c7c:	e8 df e0 ff ff       	callq  400d60 <signal@plt>
  402c81:	89 df                	mov    %ebx,%edi
  402c83:	e8 98 e0 ff ff       	callq  400d20 <alarm@plt>
  402c88:	5b                   	pop    %rbx
  402c89:	f3 c3                	repz retq 

0000000000402c8b <init_driver>:
  402c8b:	55                   	push   %rbp
  402c8c:	53                   	push   %rbx
  402c8d:	48 83 ec 28          	sub    $0x28,%rsp
  402c91:	48 89 fd             	mov    %rdi,%rbp
  402c94:	64 48 8b 04 25 28 00 	mov    %fs:0x28,%rax
  402c9b:	00 00 
  402c9d:	48 89 44 24 18       	mov    %rax,0x18(%rsp)
  402ca2:	31 c0                	xor    %eax,%eax
  402ca4:	be 01 00 00 00       	mov    $0x1,%esi
  402ca9:	bf 0d 00 00 00       	mov    $0xd,%edi
  402cae:	e8 ad e0 ff ff       	callq  400d60 <signal@plt>
  402cb3:	be 01 00 00 00       	mov    $0x1,%esi
  402cb8:	bf 1d 00 00 00       	mov    $0x1d,%edi
  402cbd:	e8 9e e0 ff ff       	callq  400d60 <signal@plt>
  402cc2:	be 01 00 00 00       	mov    $0x1,%esi
  402cc7:	bf 1d 00 00 00       	mov    $0x1d,%edi
  402ccc:	e8 8f e0 ff ff       	callq  400d60 <signal@plt>
  402cd1:	ba 00 00 00 00       	mov    $0x0,%edx
  402cd6:	be 01 00 00 00       	mov    $0x1,%esi
  402cdb:	bf 02 00 00 00       	mov    $0x2,%edi
  402ce0:	e8 ab e1 ff ff       	callq  400e90 <socket@plt>
  402ce5:	85 c0                	test   %eax,%eax
  402ce7:	79 4f                	jns    402d38 <init_driver+0xad>
  402ce9:	48 b8 45 72 72 6f 72 	movabs $0x43203a726f727245,%rax
  402cf0:	3a 20 43 
  402cf3:	48 89 45 00          	mov    %rax,0x0(%rbp)
  402cf7:	48 b8 6c 69 65 6e 74 	movabs $0x6e7520746e65696c,%rax
  402cfe:	20 75 6e 
  402d01:	48 89 45 08          	mov    %rax,0x8(%rbp)
  402d05:	48 b8 61 62 6c 65 20 	movabs $0x206f7420656c6261,%rax
  402d0c:	74 6f 20 
  402d0f:	48 89 45 10          	mov    %rax,0x10(%rbp)
  402d13:	48 b8 63 72 65 61 74 	movabs $0x7320657461657263,%rax
  402d1a:	65 20 73 
  402d1d:	48 89 45 18          	mov    %rax,0x18(%rbp)
  402d21:	c7 45 20 6f 63 6b 65 	movl   $0x656b636f,0x20(%rbp)
  402d28:	66 c7 45 24 74 00    	movw   $0x74,0x24(%rbp)
  402d2e:	b8 ff ff ff ff       	mov    $0xffffffff,%eax
  402d33:	e9 2a 01 00 00       	jmpq   402e62 <init_driver+0x1d7>
  402d38:	89 c3                	mov    %eax,%ebx
  402d3a:	bf 35 39 40 00       	mov    $0x403935,%edi
  402d3f:	e8 2c e0 ff ff       	callq  400d70 <gethostbyname@plt>
  402d44:	48 85 c0             	test   %rax,%rax
  402d47:	75 68                	jne    402db1 <init_driver+0x126>
  402d49:	48 b8 45 72 72 6f 72 	movabs $0x44203a726f727245,%rax
  402d50:	3a 20 44 
  402d53:	48 89 45 00          	mov    %rax,0x0(%rbp)
  402d57:	48 b8 4e 53 20 69 73 	movabs $0x6e7520736920534e,%rax
  402d5e:	20 75 6e 
  402d61:	48 89 45 08          	mov    %rax,0x8(%rbp)
  402d65:	48 b8 61 62 6c 65 20 	movabs $0x206f7420656c6261,%rax
  402d6c:	74 6f 20 
  402d6f:	48 89 45 10          	mov    %rax,0x10(%rbp)
  402d73:	48 b8 72 65 73 6f 6c 	movabs $0x2065766c6f736572,%rax
  402d7a:	76 65 20 
  402d7d:	48 89 45 18          	mov    %rax,0x18(%rbp)
  402d81:	48 b8 73 65 72 76 65 	movabs $0x6120726576726573,%rax
  402d88:	72 20 61 
  402d8b:	48 89 45 20          	mov    %rax,0x20(%rbp)
  402d8f:	c7 45 28 64 64 72 65 	movl   $0x65726464,0x28(%rbp)
  402d96:	66 c7 45 2c 73 73    	movw   $0x7373,0x2c(%rbp)
  402d9c:	c6 45 2e 00          	movb   $0x0,0x2e(%rbp)
  402da0:	89 df                	mov    %ebx,%edi
  402da2:	e8 89 df ff ff       	callq  400d30 <close@plt>
  402da7:	b8 ff ff ff ff       	mov    $0xffffffff,%eax
  402dac:	e9 b1 00 00 00       	jmpq   402e62 <init_driver+0x1d7>
  402db1:	48 c7 04 24 00 00 00 	movq   $0x0,(%rsp)
  402db8:	00 
  402db9:	48 c7 44 24 08 00 00 	movq   $0x0,0x8(%rsp)
  402dc0:	00 00 
  402dc2:	66 c7 04 24 02 00    	movw   $0x2,(%rsp)
  402dc8:	48 63 50 14          	movslq 0x14(%rax),%rdx
  402dcc:	48 8b 40 18          	mov    0x18(%rax),%rax
  402dd0:	48 8b 30             	mov    (%rax),%rsi
  402dd3:	48 8d 7c 24 04       	lea    0x4(%rsp),%rdi
  402dd8:	b9 0c 00 00 00       	mov    $0xc,%ecx
  402ddd:	e8 9e df ff ff       	callq  400d80 <__memmove_chk@plt>
  402de2:	66 c7 44 24 02 3c 9a 	movw   $0x9a3c,0x2(%rsp)
  402de9:	ba 10 00 00 00       	mov    $0x10,%edx
  402dee:	48 89 e6             	mov    %rsp,%rsi
  402df1:	89 df                	mov    %ebx,%edi
  402df3:	e8 68 e0 ff ff       	callq  400e60 <connect@plt>
  402df8:	85 c0                	test   %eax,%eax
  402dfa:	79 50                	jns    402e4c <init_driver+0x1c1>
  402dfc:	48 b8 45 72 72 6f 72 	movabs $0x55203a726f727245,%rax
  402e03:	3a 20 55 
  402e06:	48 89 45 00          	mov    %rax,0x0(%rbp)
  402e0a:	48 b8 6e 61 62 6c 65 	movabs $0x6f7420656c62616e,%rax
  402e11:	20 74 6f 
  402e14:	48 89 45 08          	mov    %rax,0x8(%rbp)
  402e18:	48 b8 20 63 6f 6e 6e 	movabs $0x7463656e6e6f6320,%rax
  402e1f:	65 63 74 
  402e22:	48 89 45 10          	mov    %rax,0x10(%rbp)
  402e26:	48 b8 20 74 6f 20 73 	movabs $0x76726573206f7420,%rax
  402e2d:	65 72 76 
  402e30:	48 89 45 18          	mov    %rax,0x18(%rbp)
  402e34:	66 c7 45 20 65 72    	movw   $0x7265,0x20(%rbp)
  402e3a:	c6 45 22 00          	movb   $0x0,0x22(%rbp)
  402e3e:	89 df                	mov    %ebx,%edi
  402e40:	e8 eb de ff ff       	callq  400d30 <close@plt>
  402e45:	b8 ff ff ff ff       	mov    $0xffffffff,%eax
  402e4a:	eb 16                	jmp    402e62 <init_driver+0x1d7>
  402e4c:	89 df                	mov    %ebx,%edi
  402e4e:	e8 dd de ff ff       	callq  400d30 <close@plt>
  402e53:	66 c7 45 00 4f 4b    	movw   $0x4b4f,0x0(%rbp)
  402e59:	c6 45 02 00          	movb   $0x0,0x2(%rbp)
  402e5d:	b8 00 00 00 00       	mov    $0x0,%eax
  402e62:	48 8b 4c 24 18       	mov    0x18(%rsp),%rcx
  402e67:	64 48 33 0c 25 28 00 	xor    %fs:0x28,%rcx
  402e6e:	00 00 
  402e70:	74 05                	je     402e77 <init_driver+0x1ec>
  402e72:	e8 79 de ff ff       	callq  400cf0 <__stack_chk_fail@plt>
  402e77:	48 83 c4 28          	add    $0x28,%rsp
  402e7b:	5b                   	pop    %rbx
  402e7c:	5d                   	pop    %rbp
  402e7d:	c3                   	retq   

0000000000402e7e <driver_post>:
  402e7e:	53                   	push   %rbx
  402e7f:	4c 89 cb             	mov    %r9,%rbx
  402e82:	45 85 c0             	test   %r8d,%r8d
  402e85:	74 27                	je     402eae <driver_post+0x30>
  402e87:	48 89 ca             	mov    %rcx,%rdx
  402e8a:	be 4a 39 40 00       	mov    $0x40394a,%esi
  402e8f:	bf 01 00 00 00       	mov    $0x1,%edi
  402e94:	b8 00 00 00 00       	mov    $0x0,%eax
  402e99:	e8 62 df ff ff       	callq  400e00 <__printf_chk@plt>
  402e9e:	66 c7 03 4f 4b       	movw   $0x4b4f,(%rbx)
  402ea3:	c6 43 02 00          	movb   $0x0,0x2(%rbx)
  402ea7:	b8 00 00 00 00       	mov    $0x0,%eax
  402eac:	eb 3f                	jmp    402eed <driver_post+0x6f>
  402eae:	48 85 ff             	test   %rdi,%rdi
  402eb1:	74 2c                	je     402edf <driver_post+0x61>
  402eb3:	80 3f 00             	cmpb   $0x0,(%rdi)
  402eb6:	74 27                	je     402edf <driver_post+0x61>
  402eb8:	48 83 ec 08          	sub    $0x8,%rsp
  402ebc:	41 51                	push   %r9
  402ebe:	49 89 c9             	mov    %rcx,%r9
  402ec1:	49 89 d0             	mov    %rdx,%r8
  402ec4:	48 89 f9             	mov    %rdi,%rcx
  402ec7:	48 89 f2             	mov    %rsi,%rdx
  402eca:	be 9a 3c 00 00       	mov    $0x3c9a,%esi
  402ecf:	bf 35 39 40 00       	mov    $0x403935,%edi
  402ed4:	e8 19 f6 ff ff       	callq  4024f2 <submitr>
  402ed9:	48 83 c4 10          	add    $0x10,%rsp
  402edd:	eb 0e                	jmp    402eed <driver_post+0x6f>
  402edf:	66 c7 03 4f 4b       	movw   $0x4b4f,(%rbx)
  402ee4:	c6 43 02 00          	movb   $0x0,0x2(%rbx)
  402ee8:	b8 00 00 00 00       	mov    $0x0,%eax
  402eed:	5b                   	pop    %rbx
  402eee:	c3                   	retq   

0000000000402eef <check>:
  402eef:	89 f8                	mov    %edi,%eax
  402ef1:	c1 e8 1c             	shr    $0x1c,%eax
  402ef4:	85 c0                	test   %eax,%eax
  402ef6:	74 1d                	je     402f15 <check+0x26>
  402ef8:	b9 00 00 00 00       	mov    $0x0,%ecx
  402efd:	eb 0b                	jmp    402f0a <check+0x1b>
  402eff:	89 f8                	mov    %edi,%eax
  402f01:	d3 e8                	shr    %cl,%eax
  402f03:	3c 0a                	cmp    $0xa,%al
  402f05:	74 14                	je     402f1b <check+0x2c>
  402f07:	83 c1 08             	add    $0x8,%ecx
  402f0a:	83 f9 1f             	cmp    $0x1f,%ecx
  402f0d:	7e f0                	jle    402eff <check+0x10>
  402f0f:	b8 01 00 00 00       	mov    $0x1,%eax
  402f14:	c3                   	retq   
  402f15:	b8 00 00 00 00       	mov    $0x0,%eax
  402f1a:	c3                   	retq   
  402f1b:	b8 00 00 00 00       	mov    $0x0,%eax
  402f20:	c3                   	retq   

0000000000402f21 <gencookie>:
  402f21:	53                   	push   %rbx
  402f22:	83 c7 01             	add    $0x1,%edi
  402f25:	e8 76 dd ff ff       	callq  400ca0 <srandom@plt>
  402f2a:	e8 91 de ff ff       	callq  400dc0 <random@plt>
  402f2f:	89 c3                	mov    %eax,%ebx
  402f31:	89 c7                	mov    %eax,%edi
  402f33:	e8 b7 ff ff ff       	callq  402eef <check>
  402f38:	85 c0                	test   %eax,%eax
  402f3a:	74 ee                	je     402f2a <gencookie+0x9>
  402f3c:	89 d8                	mov    %ebx,%eax
  402f3e:	5b                   	pop    %rbx
  402f3f:	c3                   	retq   

0000000000402f40 <__libc_csu_init>:
  402f40:	41 57                	push   %r15
  402f42:	41 56                	push   %r14
  402f44:	41 89 ff             	mov    %edi,%r15d
  402f47:	41 55                	push   %r13
  402f49:	41 54                	push   %r12
  402f4b:	4c 8d 25 be 1e 20 00 	lea    0x201ebe(%rip),%r12        # 604e10 <__frame_dummy_init_array_entry>
  402f52:	55                   	push   %rbp
  402f53:	48 8d 2d be 1e 20 00 	lea    0x201ebe(%rip),%rbp        # 604e18 <__do_global_dtors_aux_fini_array_entry>
  402f5a:	53                   	push   %rbx
  402f5b:	49 89 f6             	mov    %rsi,%r14
  402f5e:	49 89 d5             	mov    %rdx,%r13
  402f61:	4c 29 e5             	sub    %r12,%rbp
  402f64:	48 83 ec 08          	sub    $0x8,%rsp
  402f68:	48 c1 fd 03          	sar    $0x3,%rbp
  402f6c:	e8 d7 dc ff ff       	callq  400c48 <_init>
  402f71:	48 85 ed             	test   %rbp,%rbp
  402f74:	74 20                	je     402f96 <__libc_csu_init+0x56>
  402f76:	31 db                	xor    %ebx,%ebx
  402f78:	0f 1f 84 00 00 00 00 	nopl   0x0(%rax,%rax,1)
  402f7f:	00 
  402f80:	4c 89 ea             	mov    %r13,%rdx
  402f83:	4c 89 f6             	mov    %r14,%rsi
  402f86:	44 89 ff             	mov    %r15d,%edi
  402f89:	41 ff 14 dc          	callq  *(%r12,%rbx,8)
  402f8d:	48 83 c3 01          	add    $0x1,%rbx
  402f91:	48 39 eb             	cmp    %rbp,%rbx
  402f94:	75 ea                	jne    402f80 <__libc_csu_init+0x40>
  402f96:	48 83 c4 08          	add    $0x8,%rsp
  402f9a:	5b                   	pop    %rbx
  402f9b:	5d                   	pop    %rbp
  402f9c:	41 5c                	pop    %r12
  402f9e:	41 5d                	pop    %r13
  402fa0:	41 5e                	pop    %r14
  402fa2:	41 5f                	pop    %r15
  402fa4:	c3                   	retq   
  402fa5:	90                   	nop
  402fa6:	66 2e 0f 1f 84 00 00 	nopw   %cs:0x0(%rax,%rax,1)
  402fad:	00 00 00 

0000000000402fb0 <__libc_csu_fini>:
  402fb0:	f3 c3                	repz retq 

Disassembly of section .fini:

0000000000402fb4 <_fini>:
  402fb4:	48 83 ec 08          	sub    $0x8,%rsp
  402fb8:	48 83 c4 08          	add    $0x8,%rsp
  402fbc:	c3                   	retq   
